
pmp.riscv:     file format elf64-littleriscv


Disassembly of section .text.init:

0000000080000000 <_start>:
    80000000:	4081                	li	ra,0
    80000002:	4101                	li	sp,0
    80000004:	4181                	li	gp,0
    80000006:	4201                	li	tp,0
    80000008:	4281                	li	t0,0
    8000000a:	4301                	li	t1,0
    8000000c:	4381                	li	t2,0
    8000000e:	4401                	li	s0,0
    80000010:	4481                	li	s1,0
    80000012:	4501                	li	a0,0
    80000014:	4581                	li	a1,0
    80000016:	4601                	li	a2,0
    80000018:	4681                	li	a3,0
    8000001a:	4701                	li	a4,0
    8000001c:	4781                	li	a5,0
    8000001e:	4801                	li	a6,0
    80000020:	4881                	li	a7,0
    80000022:	4901                	li	s2,0
    80000024:	4981                	li	s3,0
    80000026:	4a01                	li	s4,0
    80000028:	4a81                	li	s5,0
    8000002a:	4b01                	li	s6,0
    8000002c:	4b81                	li	s7,0
    8000002e:	4c01                	li	s8,0
    80000030:	4c81                	li	s9,0
    80000032:	4d01                	li	s10,0
    80000034:	4d81                	li	s11,0
    80000036:	4e01                	li	t3,0
    80000038:	4e81                	li	t4,0
    8000003a:	4f01                	li	t5,0
    8000003c:	4f81                	li	t6,0
    8000003e:	62f9                	lui	t0,0x1e
    80000040:	6002829b          	addiw	t0,t0,1536 # 1e600 <buflen.1+0x1e5c0>
    80000044:	3002a073          	csrs	mstatus,t0
    80000048:	4285                	li	t0,1
    8000004a:	02fe                	slli	t0,t0,0x1f
    8000004c:	0002d863          	bgez	t0,8000005c <_start+0x5c>
    80000050:	4505                	li	a0,1
    80000052:	00001297          	auipc	t0,0x1
    80000056:	faa2a723          	sw	a0,-82(t0) # 80001000 <tohost>
    8000005a:	bfdd                	j	80000050 <_start+0x50>
    8000005c:	00000297          	auipc	t0,0x0
    80000060:	09028293          	addi	t0,t0,144 # 800000ec <_start+0xec>
    80000064:	30529073          	csrw	mtvec,t0
    80000068:	00301073          	fscsr	zero
    8000006c:	f0000053          	fmv.w.x	ft0,zero
    80000070:	f00000d3          	fmv.w.x	ft1,zero
    80000074:	f0000153          	fmv.w.x	ft2,zero
    80000078:	f00001d3          	fmv.w.x	ft3,zero
    8000007c:	f0000253          	fmv.w.x	ft4,zero
    80000080:	f00002d3          	fmv.w.x	ft5,zero
    80000084:	f0000353          	fmv.w.x	ft6,zero
    80000088:	f00003d3          	fmv.w.x	ft7,zero
    8000008c:	f0000453          	fmv.w.x	fs0,zero
    80000090:	f00004d3          	fmv.w.x	fs1,zero
    80000094:	f0000553          	fmv.w.x	fa0,zero
    80000098:	f00005d3          	fmv.w.x	fa1,zero
    8000009c:	f0000653          	fmv.w.x	fa2,zero
    800000a0:	f00006d3          	fmv.w.x	fa3,zero
    800000a4:	f0000753          	fmv.w.x	fa4,zero
    800000a8:	f00007d3          	fmv.w.x	fa5,zero
    800000ac:	f0000853          	fmv.w.x	fa6,zero
    800000b0:	f00008d3          	fmv.w.x	fa7,zero
    800000b4:	f0000953          	fmv.w.x	fs2,zero
    800000b8:	f00009d3          	fmv.w.x	fs3,zero
    800000bc:	f0000a53          	fmv.w.x	fs4,zero
    800000c0:	f0000ad3          	fmv.w.x	fs5,zero
    800000c4:	f0000b53          	fmv.w.x	fs6,zero
    800000c8:	f0000bd3          	fmv.w.x	fs7,zero
    800000cc:	f0000c53          	fmv.w.x	fs8,zero
    800000d0:	f0000cd3          	fmv.w.x	fs9,zero
    800000d4:	f0000d53          	fmv.w.x	fs10,zero
    800000d8:	f0000dd3          	fmv.w.x	fs11,zero
    800000dc:	f0000e53          	fmv.w.x	ft8,zero
    800000e0:	f0000ed3          	fmv.w.x	ft9,zero
    800000e4:	f0000f53          	fmv.w.x	ft10,zero
    800000e8:	f0000fd3          	fmv.w.x	ft11,zero
    800000ec:	00000297          	auipc	t0,0x0
    800000f0:	03c28293          	addi	t0,t0,60 # 80000128 <trap_entry>
    800000f4:	30529073          	csrw	mtvec,t0
    800000f8:	00003197          	auipc	gp,0x3
    800000fc:	47c18193          	addi	gp,gp,1148 # 80003574 <__global_pointer$>
    80000100:	00007217          	auipc	tp,0x7
    80000104:	f7f20213          	addi	tp,tp,-129 # 8000707f <_end+0x3f>
    80000108:	fc027213          	andi	tp,tp,-64
    8000010c:	f1402573          	csrr	a0,mhartid
    80000110:	4585                	li	a1,1
    80000112:	00b57063          	bgeu	a0,a1,80000112 <_start+0x112>
    80000116:	00150113          	addi	sp,a0,1
    8000011a:	0146                	slli	sp,sp,0x11
    8000011c:	9112                	add	sp,sp,tp
    8000011e:	01151613          	slli	a2,a0,0x11
    80000122:	9232                	add	tp,tp,a2
    80000124:	0510206f          	j	80002974 <_init>

0000000080000128 <trap_entry>:
    80000128:	716d                	addi	sp,sp,-272
    8000012a:	e406                	sd	ra,8(sp)
    8000012c:	e80a                	sd	sp,16(sp)
    8000012e:	ec0e                	sd	gp,24(sp)
    80000130:	f012                	sd	tp,32(sp)
    80000132:	f416                	sd	t0,40(sp)
    80000134:	f81a                	sd	t1,48(sp)
    80000136:	fc1e                	sd	t2,56(sp)
    80000138:	e0a2                	sd	s0,64(sp)
    8000013a:	e4a6                	sd	s1,72(sp)
    8000013c:	e8aa                	sd	a0,80(sp)
    8000013e:	ecae                	sd	a1,88(sp)
    80000140:	f0b2                	sd	a2,96(sp)
    80000142:	f4b6                	sd	a3,104(sp)
    80000144:	f8ba                	sd	a4,112(sp)
    80000146:	fcbe                	sd	a5,120(sp)
    80000148:	e142                	sd	a6,128(sp)
    8000014a:	e546                	sd	a7,136(sp)
    8000014c:	e94a                	sd	s2,144(sp)
    8000014e:	ed4e                	sd	s3,152(sp)
    80000150:	f152                	sd	s4,160(sp)
    80000152:	f556                	sd	s5,168(sp)
    80000154:	f95a                	sd	s6,176(sp)
    80000156:	fd5e                	sd	s7,184(sp)
    80000158:	e1e2                	sd	s8,192(sp)
    8000015a:	e5e6                	sd	s9,200(sp)
    8000015c:	e9ea                	sd	s10,208(sp)
    8000015e:	edee                	sd	s11,216(sp)
    80000160:	f1f2                	sd	t3,224(sp)
    80000162:	f5f6                	sd	t4,232(sp)
    80000164:	f9fa                	sd	t5,240(sp)
    80000166:	fdfe                	sd	t6,248(sp)
    80000168:	34202573          	csrr	a0,mcause
    8000016c:	341025f3          	csrr	a1,mepc
    80000170:	860a                	mv	a2,sp
    80000172:	21a020ef          	jal	8000238c <handle_trap>
    80000176:	34151073          	csrw	mepc,a0
    8000017a:	6289                	lui	t0,0x2
    8000017c:	8002829b          	addiw	t0,t0,-2048 # 1800 <buflen.1+0x17c0>
    80000180:	3002a073          	csrs	mstatus,t0
    80000184:	60a2                	ld	ra,8(sp)
    80000186:	6142                	ld	sp,16(sp)
    80000188:	61e2                	ld	gp,24(sp)
    8000018a:	7202                	ld	tp,32(sp)
    8000018c:	72a2                	ld	t0,40(sp)
    8000018e:	7342                	ld	t1,48(sp)
    80000190:	73e2                	ld	t2,56(sp)
    80000192:	6406                	ld	s0,64(sp)
    80000194:	64a6                	ld	s1,72(sp)
    80000196:	6546                	ld	a0,80(sp)
    80000198:	65e6                	ld	a1,88(sp)
    8000019a:	7606                	ld	a2,96(sp)
    8000019c:	76a6                	ld	a3,104(sp)
    8000019e:	7746                	ld	a4,112(sp)
    800001a0:	77e6                	ld	a5,120(sp)
    800001a2:	680a                	ld	a6,128(sp)
    800001a4:	68aa                	ld	a7,136(sp)
    800001a6:	694a                	ld	s2,144(sp)
    800001a8:	69ea                	ld	s3,152(sp)
    800001aa:	7a0a                	ld	s4,160(sp)
    800001ac:	7aaa                	ld	s5,168(sp)
    800001ae:	7b4a                	ld	s6,176(sp)
    800001b0:	7bea                	ld	s7,184(sp)
    800001b2:	6c0e                	ld	s8,192(sp)
    800001b4:	6cae                	ld	s9,200(sp)
    800001b6:	6d4e                	ld	s10,208(sp)
    800001b8:	6dee                	ld	s11,216(sp)
    800001ba:	7e0e                	ld	t3,224(sp)
    800001bc:	7eae                	ld	t4,232(sp)
    800001be:	7f4e                	ld	t5,240(sp)
    800001c0:	7fee                	ld	t6,248(sp)
    800001c2:	6151                	addi	sp,sp,272
    800001c4:	30200073          	mret
    800001c8:	0001                	nop

Disassembly of section .text:

0000000080002000 <test_range>:
    80002000:	7139                	addi	sp,sp,-64
    80002002:	80050793          	addi	a5,a0,-2048
    80002006:	fc06                	sd	ra,56(sp)
    80002008:	f822                	sd	s0,48(sp)
    8000200a:	f426                	sd	s1,40(sp)
    8000200c:	f04a                	sd	s2,32(sp)
    8000200e:	ec4e                	sd	s3,24(sp)
    80002010:	e852                	sd	s4,16(sp)
    80002012:	e456                	sd	s5,8(sp)
    80002014:	e05a                	sd	s6,0(sp)
    80002016:	80078793          	addi	a5,a5,-2048
    8000201a:	6f85                	lui	t6,0x1
    8000201c:	2ff7fb63          	bgeu	a5,t6,80002312 <test_range+0x312>
    80002020:	00003997          	auipc	s3,0x3
    80002024:	fe098993          	addi	s3,s3,-32 # 80005000 <l1pt>
    80002028:	01350ab3          	add	s5,a0,s3
    8000202c:	015582b3          	add	t0,a1,s5
    80002030:	8f2a                	mv	t5,a0
    80002032:	8a2e                	mv	s4,a1
    80002034:	0022d293          	srli	t0,t0,0x2
    80002038:	002ad413          	srli	s0,s5,0x2
    8000203c:	3a0027f3          	csrr	a5,pmpcfg0
    80002040:	7741                	lui	a4,0xffff0
    80002042:	0ff70713          	addi	a4,a4,255 # ffffffffffff00ff <_tbss_end+0xffffffff7ffe907b>
    80002046:	8ff9                	and	a5,a5,a4
    80002048:	3a079073          	csrw	pmpcfg0,a5
    8000204c:	3b041073          	csrw	pmpaddr0,s0
    80002050:	3b129073          	csrw	pmpaddr1,t0
    80002054:	6705                	lui	a4,0x1
    80002056:	90070713          	addi	a4,a4,-1792 # 900 <buflen.1+0x8c0>
    8000205a:	8fd9                	or	a5,a5,a4
    8000205c:	3a079073          	csrw	pmpcfg0,a5
    80002060:	12000073          	sfence.vma
    80002064:	00b50933          	add	s2,a0,a1
    80002068:	832a                	mv	t1,a0
    8000206a:	0d257a63          	bgeu	a0,s2,8000213e <test_range+0x13e>
    8000206e:	fffde5b7          	lui	a1,0xfffde
    80002072:	000213b7          	lui	t2,0x21
    80002076:	7ff58593          	addi	a1,a1,2047 # fffffffffffde7ff <_tbss_end+0xffffffff7ffd777b>
    8000207a:	80038393          	addi	t2,t2,-2048 # 20800 <buflen.1+0x207c0>
    8000207e:	4e91                	li	t4,4
    80002080:	4485                	li	s1,1
    80002082:	80030e13          	addi	t3,t1,-2048
    80002086:	800e0e13          	addi	t3,t3,-2048
    8000208a:	4891                	li	a7,4
    8000208c:	4605                	li	a2,1
    8000208e:	00698833          	add	a6,s3,t1
    80002092:	fff60693          	addi	a3,a2,-1
    80002096:	0066f6b3          	and	a3,a3,t1
    8000209a:	e6d9                	bnez	a3,80002128 <test_range+0x128>
    8000209c:	00001517          	auipc	a0,0x1
    800020a0:	cd852503          	lw	a0,-808(a0) # 80002d74 <granule>
    800020a4:	00001b17          	auipc	s6,0x1
    800020a8:	cd0b2b03          	lw	s6,-816(s6) # 80002d74 <granule>
    800020ac:	27fe7363          	bgeu	t3,t6,80002312 <test_range+0x312>
    800020b0:	ce61                	beqz	a2,80002188 <test_range+0x188>
    800020b2:	02850533          	mul	a0,a0,s0
    800020b6:	4781                	li	a5,0
    800020b8:	025b0b33          	mul	s6,s6,t0
    800020bc:	00f80733          	add	a4,a6,a5
    800020c0:	00a76963          	bltu	a4,a0,800020d2 <test_range+0xd2>
    800020c4:	01677763          	bgeu	a4,s6,800020d2 <test_range+0xd2>
    800020c8:	00001717          	auipc	a4,0x1
    800020cc:	cac72703          	lw	a4,-852(a4) # 80002d74 <granule>
    800020d0:	96ba                	add	a3,a3,a4
    800020d2:	00001717          	auipc	a4,0x1
    800020d6:	ca272703          	lw	a4,-862(a4) # 80002d74 <granule>
    800020da:	97ba                	add	a5,a5,a4
    800020dc:	fec7e0e3          	bltu	a5,a2,800020bc <test_range+0xbc>
    800020e0:	00c6b7b3          	sltu	a5,a3,a2
    800020e4:	0017b793          	seqz	a5,a5
    800020e8:	0016b693          	seqz	a3,a3
    800020ec:	8edd                	or	a3,a3,a5
    800020ee:	0016b693          	seqz	a3,a3
    800020f2:	00001797          	auipc	a5,0x1
    800020f6:	c8d7a323          	sw	a3,-890(a5) # 80002d78 <trap_expected>
    800020fa:	300027f3          	csrr	a5,mstatus
    800020fe:	8fed                	and	a5,a5,a1
    80002100:	0077e7b3          	or	a5,a5,t2
    80002104:	07d60b63          	beq	a2,t4,8000217a <test_range+0x17a>
    80002108:	06cee263          	bltu	t4,a2,8000216c <test_range+0x16c>
    8000210c:	04961963          	bne	a2,s1,8000215e <test_range+0x15e>
    80002110:	300797f3          	csrrw	a5,mstatus,a5
    80002114:	00030003          	lb	zero,0(t1)
    80002118:	30079073          	csrw	mstatus,a5
    8000211c:	00001797          	auipc	a5,0x1
    80002120:	c5c7a783          	lw	a5,-932(a5) # 80002d78 <trap_expected>
    80002124:	1e079a63          	bnez	a5,80002318 <test_range+0x318>
    80002128:	38fd                	addiw	a7,a7,-1
    8000212a:	0606                	slli	a2,a2,0x1
    8000212c:	f60893e3          	bnez	a7,80002092 <test_range+0x92>
    80002130:	00001797          	auipc	a5,0x1
    80002134:	c447a783          	lw	a5,-956(a5) # 80002d74 <granule>
    80002138:	933e                	add	t1,t1,a5
    8000213a:	f52364e3          	bltu	t1,s2,80002082 <test_range+0x82>
    8000213e:	fffa0793          	addi	a5,s4,-1
    80002142:	014f6733          	or	a4,t5,s4
    80002146:	8ff9                	and	a5,a5,a4
    80002148:	c7b1                	beqz	a5,80002194 <test_range+0x194>
    8000214a:	70e2                	ld	ra,56(sp)
    8000214c:	7442                	ld	s0,48(sp)
    8000214e:	74a2                	ld	s1,40(sp)
    80002150:	7902                	ld	s2,32(sp)
    80002152:	69e2                	ld	s3,24(sp)
    80002154:	6a42                	ld	s4,16(sp)
    80002156:	6aa2                	ld	s5,8(sp)
    80002158:	6b02                	ld	s6,0(sp)
    8000215a:	6121                	addi	sp,sp,64
    8000215c:	8082                	ret
    8000215e:	300797f3          	csrrw	a5,mstatus,a5
    80002162:	00031003          	lh	zero,0(t1)
    80002166:	30079073          	csrw	mstatus,a5
    8000216a:	bf4d                	j	8000211c <test_range+0x11c>
    8000216c:	300797f3          	csrrw	a5,mstatus,a5
    80002170:	00033003          	ld	zero,0(t1)
    80002174:	30079073          	csrw	mstatus,a5
    80002178:	b755                	j	8000211c <test_range+0x11c>
    8000217a:	300797f3          	csrrw	a5,mstatus,a5
    8000217e:	00032003          	lw	zero,0(t1)
    80002182:	30079073          	csrw	mstatus,a5
    80002186:	bf59                	j	8000211c <test_range+0x11c>
    80002188:	00001797          	auipc	a5,0x1
    8000218c:	be07a823          	sw	zero,-1040(a5) # 80002d78 <trap_expected>
    80002190:	300027f3          	csrr	a5,mstatus
    80002194:	00001797          	auipc	a5,0x1
    80002198:	be07a783          	lw	a5,-1056(a5) # 80002d74 <granule>
    8000219c:	1147ee63          	bltu	a5,s4,800022b8 <test_range+0x2b8>
    800021a0:	6705                	lui	a4,0x1
    800021a2:	10070713          	addi	a4,a4,256 # 1100 <buflen.1+0x10c0>
    800021a6:	4ec5                	li	t4,17
    800021a8:	001a5e13          	srli	t3,s4,0x1
    800021ac:	1e7d                	addi	t3,t3,-1
    800021ae:	9e56                	add	t3,t3,s5
    800021b0:	002e5e13          	srli	t3,t3,0x2
    800021b4:	3a0027f3          	csrr	a5,pmpcfg0
    800021b8:	76c1                	lui	a3,0xffff0
    800021ba:	0ff68693          	addi	a3,a3,255 # ffffffffffff00ff <_tbss_end+0xffffffff7ffe907b>
    800021be:	8ff5                	and	a5,a5,a3
    800021c0:	3a079073          	csrw	pmpcfg0,a5
    800021c4:	3b005073          	csrwi	pmpaddr0,0
    800021c8:	3b1e1073          	csrw	pmpaddr1,t3
    800021cc:	8fd9                	or	a5,a5,a4
    800021ce:	3a079073          	csrw	pmpcfg0,a5
    800021d2:	12000073          	sfence.vma
    800021d6:	f72f7ae3          	bgeu	t5,s2,8000214a <test_range+0x14a>
    800021da:	fffde437          	lui	s0,0xfffde
    800021de:	000213b7          	lui	t2,0x21
    800021e2:	7ff40413          	addi	s0,s0,2047 # fffffffffffde7ff <_tbss_end+0xffffffff7ffd777b>
    800021e6:	80038393          	addi	t2,t2,-2048 # 20800 <buflen.1+0x207c0>
    800021ea:	42c5                	li	t0,17
    800021ec:	6f85                	lui	t6,0x1
    800021ee:	4311                	li	t1,4
    800021f0:	4485                	li	s1,1
    800021f2:	800f0893          	addi	a7,t5,-2048
    800021f6:	80088893          	addi	a7,a7,-2048
    800021fa:	4811                	li	a6,4
    800021fc:	4585                	li	a1,1
    800021fe:	01e98533          	add	a0,s3,t5
    80002202:	fff58613          	addi	a2,a1,-1
    80002206:	01e67633          	and	a2,a2,t5
    8000220a:	ea59                	bnez	a2,800022a0 <test_range+0x2a0>
    8000220c:	86f2                	mv	a3,t3
    8000220e:	4785                	li	a5,1
    80002210:	0a5e9963          	bne	t4,t0,800022c2 <test_range+0x2c2>
    80002214:	00001a17          	auipc	s4,0x1
    80002218:	b60a2a03          	lw	s4,-1184(s4) # 80002d74 <granule>
    8000221c:	00001717          	auipc	a4,0x1
    80002220:	b5872703          	lw	a4,-1192(a4) # 80002d74 <granule>
    80002224:	0ff8f763          	bgeu	a7,t6,80002312 <test_range+0x312>
    80002228:	d1a5                	beqz	a1,80002188 <test_range+0x188>
    8000222a:	02da0a33          	mul	s4,s4,a3
    8000222e:	97b6                	add	a5,a5,a3
    80002230:	02e78733          	mul	a4,a5,a4
    80002234:	4781                	li	a5,0
    80002236:	00f506b3          	add	a3,a0,a5
    8000223a:	00e6f963          	bgeu	a3,a4,8000224c <test_range+0x24c>
    8000223e:	0146e763          	bltu	a3,s4,8000224c <test_range+0x24c>
    80002242:	00001697          	auipc	a3,0x1
    80002246:	b326a683          	lw	a3,-1230(a3) # 80002d74 <granule>
    8000224a:	9636                	add	a2,a2,a3
    8000224c:	00001697          	auipc	a3,0x1
    80002250:	b286a683          	lw	a3,-1240(a3) # 80002d74 <granule>
    80002254:	97b6                	add	a5,a5,a3
    80002256:	feb7e0e3          	bltu	a5,a1,80002236 <test_range+0x236>
    8000225a:	00b63733          	sltu	a4,a2,a1
    8000225e:	00173713          	seqz	a4,a4
    80002262:	00163793          	seqz	a5,a2
    80002266:	8fd9                	or	a5,a5,a4
    80002268:	0017b793          	seqz	a5,a5
    8000226c:	00001717          	auipc	a4,0x1
    80002270:	b0f72623          	sw	a5,-1268(a4) # 80002d78 <trap_expected>
    80002274:	300027f3          	csrr	a5,mstatus
    80002278:	8fe1                	and	a5,a5,s0
    8000227a:	0077e7b3          	or	a5,a5,t2
    8000227e:	06658563          	beq	a1,t1,800022e8 <test_range+0x2e8>
    80002282:	08b36163          	bltu	t1,a1,80002304 <test_range+0x304>
    80002286:	06959863          	bne	a1,s1,800022f6 <test_range+0x2f6>
    8000228a:	300797f3          	csrrw	a5,mstatus,a5
    8000228e:	000f0003          	lb	zero,0(t5)
    80002292:	30079073          	csrw	mstatus,a5
    80002296:	00001797          	auipc	a5,0x1
    8000229a:	ae27a783          	lw	a5,-1310(a5) # 80002d78 <trap_expected>
    8000229e:	efad                	bnez	a5,80002318 <test_range+0x318>
    800022a0:	387d                	addiw	a6,a6,-1
    800022a2:	0586                	slli	a1,a1,0x1
    800022a4:	f4081fe3          	bnez	a6,80002202 <test_range+0x202>
    800022a8:	00001797          	auipc	a5,0x1
    800022ac:	acc7a783          	lw	a5,-1332(a5) # 80002d74 <granule>
    800022b0:	9f3e                	add	t5,t5,a5
    800022b2:	f52f60e3          	bltu	t5,s2,800021f2 <test_range+0x1f2>
    800022b6:	bd51                	j	8000214a <test_range+0x14a>
    800022b8:	6709                	lui	a4,0x2
    800022ba:	90070713          	addi	a4,a4,-1792 # 1900 <buflen.1+0x18c0>
    800022be:	4ee5                	li	t4,25
    800022c0:	b5e5                	j	800021a8 <test_range+0x1a8>
    800022c2:	04000a13          	li	s4,64
    800022c6:	4789                	li	a5,2
    800022c8:	4705                	li	a4,1
    800022ca:	a811                	j	800022de <test_range+0x2de>
    800022cc:	fff74a93          	not	s5,a4
    800022d0:	3a7d                	addiw	s4,s4,-1
    800022d2:	0786                	slli	a5,a5,0x1
    800022d4:	0156f6b3          	and	a3,a3,s5
    800022d8:	0706                	slli	a4,a4,0x1
    800022da:	f20a0de3          	beqz	s4,80002214 <test_range+0x214>
    800022de:	00d77ab3          	and	s5,a4,a3
    800022e2:	fe0a95e3          	bnez	s5,800022cc <test_range+0x2cc>
    800022e6:	b73d                	j	80002214 <test_range+0x214>
    800022e8:	300797f3          	csrrw	a5,mstatus,a5
    800022ec:	000f2003          	lw	zero,0(t5)
    800022f0:	30079073          	csrw	mstatus,a5
    800022f4:	b74d                	j	80002296 <test_range+0x296>
    800022f6:	300797f3          	csrrw	a5,mstatus,a5
    800022fa:	000f1003          	lh	zero,0(t5)
    800022fe:	30079073          	csrw	mstatus,a5
    80002302:	bf51                	j	80002296 <test_range+0x296>
    80002304:	300797f3          	csrrw	a5,mstatus,a5
    80002308:	000f3003          	ld	zero,0(t5)
    8000230c:	30079073          	csrw	mstatus,a5
    80002310:	b759                	j	80002296 <test_range+0x296>
    80002312:	450d                	li	a0,3
    80002314:	44e000ef          	jal	80002762 <exit>
    80002318:	4509                	li	a0,2
    8000231a:	448000ef          	jal	80002762 <exit>

000000008000231e <exhaustive_test.constprop.0>:
    8000231e:	7179                	addi	sp,sp,-48
    80002320:	80050793          	addi	a5,a0,-2048
    80002324:	ec26                	sd	s1,24(sp)
    80002326:	e44e                	sd	s3,8(sp)
    80002328:	f406                	sd	ra,40(sp)
    8000232a:	e052                	sd	s4,0(sp)
    8000232c:	80078793          	addi	a5,a5,-2048
    80002330:	84aa                	mv	s1,a0
    80002332:	6989                	lui	s3,0x2
    80002334:	e781                	bnez	a5,8000233c <exhaustive_test.constprop.0+0x1e>
    80002336:	6985                	lui	s3,0x1
    80002338:	02098993          	addi	s3,s3,32 # 1020 <buflen.1+0xfe0>
    8000233c:	02048a13          	addi	s4,s1,32
    80002340:	0534f063          	bgeu	s1,s3,80002380 <exhaustive_test.constprop.0+0x62>
    80002344:	f022                	sd	s0,32(sp)
    80002346:	e84a                	sd	s2,16(sp)
    80002348:	00001417          	auipc	s0,0x1
    8000234c:	a2c42403          	lw	s0,-1492(s0) # 80002d74 <granule>
    80002350:	409a0933          	sub	s2,s4,s1
    80002354:	00896d63          	bltu	s2,s0,8000236e <exhaustive_test.constprop.0+0x50>
    80002358:	85a2                	mv	a1,s0
    8000235a:	8526                	mv	a0,s1
    8000235c:	ca5ff0ef          	jal	80002000 <test_range>
    80002360:	00001797          	auipc	a5,0x1
    80002364:	a147a783          	lw	a5,-1516(a5) # 80002d74 <granule>
    80002368:	943e                	add	s0,s0,a5
    8000236a:	fe8977e3          	bgeu	s2,s0,80002358 <exhaustive_test.constprop.0+0x3a>
    8000236e:	00001797          	auipc	a5,0x1
    80002372:	a067a783          	lw	a5,-1530(a5) # 80002d74 <granule>
    80002376:	94be                	add	s1,s1,a5
    80002378:	fd34e8e3          	bltu	s1,s3,80002348 <exhaustive_test.constprop.0+0x2a>
    8000237c:	7402                	ld	s0,32(sp)
    8000237e:	6942                	ld	s2,16(sp)
    80002380:	70a2                	ld	ra,40(sp)
    80002382:	64e2                	ld	s1,24(sp)
    80002384:	69a2                	ld	s3,8(sp)
    80002386:	6a02                	ld	s4,0(sp)
    80002388:	6145                	addi	sp,sp,48
    8000238a:	8082                	ret

000000008000238c <handle_trap>:
    8000238c:	1141                	addi	sp,sp,-16
    8000238e:	e406                	sd	ra,8(sp)
    80002390:	4789                	li	a5,2
    80002392:	02f50763          	beq	a0,a5,800023c0 <handle_trap+0x34>
    80002396:	00001717          	auipc	a4,0x1
    8000239a:	9e272703          	lw	a4,-1566(a4) # 80002d78 <trap_expected>
    8000239e:	156d                	addi	a0,a0,-5
    800023a0:	e11d                	bnez	a0,800023c6 <handle_trap+0x3a>
    800023a2:	c315                	beqz	a4,800023c6 <handle_trap+0x3a>
    800023a4:	0005d703          	lhu	a4,0(a1)
    800023a8:	00001697          	auipc	a3,0x1
    800023ac:	9c06a823          	sw	zero,-1584(a3) # 80002d78 <trap_expected>
    800023b0:	8b0d                	andi	a4,a4,3
    800023b2:	c311                	beqz	a4,800023b6 <handle_trap+0x2a>
    800023b4:	4791                	li	a5,4
    800023b6:	60a2                	ld	ra,8(sp)
    800023b8:	00f58533          	add	a0,a1,a5
    800023bc:	0141                	addi	sp,sp,16
    800023be:	8082                	ret
    800023c0:	4501                	li	a0,0
    800023c2:	3a0000ef          	jal	80002762 <exit>
    800023c6:	4505                	li	a0,1
    800023c8:	39a000ef          	jal	80002762 <exit>

00000000800023cc <vprintfmt>:
    800023cc:	710d                	addi	sp,sp,-352
    800023ce:	eaa2                	sd	s0,336(sp)
    800023d0:	e6a6                	sd	s1,328(sp)
    800023d2:	e2ca                	sd	s2,320(sp)
    800023d4:	fa52                	sd	s4,304(sp)
    800023d6:	f656                	sd	s5,296(sp)
    800023d8:	f25a                	sd	s6,288(sp)
    800023da:	ee5e                	sd	s7,280(sp)
    800023dc:	ee86                	sd	ra,344(sp)
    800023de:	fe4e                	sd	s3,312(sp)
    800023e0:	ea62                	sd	s8,272(sp)
    800023e2:	e666                	sd	s9,264(sp)
    800023e4:	e26a                	sd	s10,256(sp)
    800023e6:	84aa                	mv	s1,a0
    800023e8:	8432                	mv	s0,a2
    800023ea:	8bb6                	mv	s7,a3
    800023ec:	892e                	mv	s2,a1
    800023ee:	02500a13          	li	s4,37
    800023f2:	05500b13          	li	s6,85
    800023f6:	00001a97          	auipc	s5,0x1
    800023fa:	826a8a93          	addi	s5,s5,-2010 # 80002c1c <main+0x136>
    800023fe:	a029                	j	80002408 <vprintfmt+0x3c>
    80002400:	cd1d                	beqz	a0,8000243e <vprintfmt+0x72>
    80002402:	85ca                	mv	a1,s2
    80002404:	0405                	addi	s0,s0,1
    80002406:	9482                	jalr	s1
    80002408:	00044503          	lbu	a0,0(s0)
    8000240c:	ff451ae3          	bne	a0,s4,80002400 <vprintfmt+0x34>
    80002410:	00144683          	lbu	a3,1(s0)
    80002414:	00140c13          	addi	s8,s0,1
    80002418:	59fd                	li	s3,-1
    8000241a:	8762                	mv	a4,s8
    8000241c:	8cce                	mv	s9,s3
    8000241e:	02000d13          	li	s10,32
    80002422:	4601                	li	a2,0
    80002424:	fdd6879b          	addiw	a5,a3,-35
    80002428:	0ff7f793          	zext.b	a5,a5
    8000242c:	00170413          	addi	s0,a4,1
    80002430:	04fb6163          	bltu	s6,a5,80002472 <vprintfmt+0xa6>
    80002434:	078a                	slli	a5,a5,0x2
    80002436:	97d6                	add	a5,a5,s5
    80002438:	439c                	lw	a5,0(a5)
    8000243a:	97d6                	add	a5,a5,s5
    8000243c:	8782                	jr	a5
    8000243e:	60f6                	ld	ra,344(sp)
    80002440:	6456                	ld	s0,336(sp)
    80002442:	64b6                	ld	s1,328(sp)
    80002444:	6916                	ld	s2,320(sp)
    80002446:	79f2                	ld	s3,312(sp)
    80002448:	7a52                	ld	s4,304(sp)
    8000244a:	7ab2                	ld	s5,296(sp)
    8000244c:	7b12                	ld	s6,288(sp)
    8000244e:	6bf2                	ld	s7,280(sp)
    80002450:	6c52                	ld	s8,272(sp)
    80002452:	6cb2                	ld	s9,264(sp)
    80002454:	6d12                	ld	s10,256(sp)
    80002456:	6135                	addi	sp,sp,352
    80002458:	8082                	ret
    8000245a:	8d36                	mv	s10,a3
    8000245c:	00174683          	lbu	a3,1(a4)
    80002460:	8722                	mv	a4,s0
    80002462:	00170413          	addi	s0,a4,1
    80002466:	fdd6879b          	addiw	a5,a3,-35
    8000246a:	0ff7f793          	zext.b	a5,a5
    8000246e:	fcfb73e3          	bgeu	s6,a5,80002434 <vprintfmt+0x68>
    80002472:	85ca                	mv	a1,s2
    80002474:	02500513          	li	a0,37
    80002478:	9482                	jalr	s1
    8000247a:	8462                	mv	s0,s8
    8000247c:	b771                	j	80002408 <vprintfmt+0x3c>
    8000247e:	fd06899b          	addiw	s3,a3,-48
    80002482:	00174683          	lbu	a3,1(a4)
    80002486:	4825                	li	a6,9
    80002488:	fd06879b          	addiw	a5,a3,-48
    8000248c:	1ef86a63          	bltu	a6,a5,80002680 <vprintfmt+0x2b4>
    80002490:	0006859b          	sext.w	a1,a3
    80002494:	8722                	mv	a4,s0
    80002496:	0029979b          	slliw	a5,s3,0x2
    8000249a:	00174683          	lbu	a3,1(a4)
    8000249e:	013787bb          	addw	a5,a5,s3
    800024a2:	0017979b          	slliw	a5,a5,0x1
    800024a6:	9fad                	addw	a5,a5,a1
    800024a8:	fd06851b          	addiw	a0,a3,-48
    800024ac:	0705                	addi	a4,a4,1
    800024ae:	fd07899b          	addiw	s3,a5,-48
    800024b2:	0006859b          	sext.w	a1,a3
    800024b6:	fea870e3          	bgeu	a6,a0,80002496 <vprintfmt+0xca>
    800024ba:	f60cd5e3          	bgez	s9,80002424 <vprintfmt+0x58>
    800024be:	8cce                	mv	s9,s3
    800024c0:	59fd                	li	s3,-1
    800024c2:	b78d                	j	80002424 <vprintfmt+0x58>
    800024c4:	00174683          	lbu	a3,1(a4)
    800024c8:	8722                	mv	a4,s0
    800024ca:	bfa9                	j	80002424 <vprintfmt+0x58>
    800024cc:	85ca                	mv	a1,s2
    800024ce:	02500513          	li	a0,37
    800024d2:	9482                	jalr	s1
    800024d4:	bf15                	j	80002408 <vprintfmt+0x3c>
    800024d6:	00174683          	lbu	a3,1(a4)
    800024da:	000ba983          	lw	s3,0(s7)
    800024de:	8722                	mv	a4,s0
    800024e0:	0ba1                	addi	s7,s7,8
    800024e2:	bfe1                	j	800024ba <vprintfmt+0xee>
    800024e4:	85ca                	mv	a1,s2
    800024e6:	03000513          	li	a0,48
    800024ea:	9482                	jalr	s1
    800024ec:	85ca                	mv	a1,s2
    800024ee:	07800513          	li	a0,120
    800024f2:	9482                	jalr	s1
    800024f4:	008b8793          	addi	a5,s7,8
    800024f8:	46c1                	li	a3,16
    800024fa:	000bb703          	ld	a4,0(s7)
    800024fe:	8bbe                	mv	s7,a5
    80002500:	02d775b3          	remu	a1,a4,a3
    80002504:	0050                	addi	a2,sp,4
    80002506:	4785                	li	a5,1
    80002508:	c02e                	sw	a1,0(sp)
    8000250a:	10d76463          	bltu	a4,a3,80002612 <vprintfmt+0x246>
    8000250e:	02d75733          	divu	a4,a4,a3
    80002512:	8c3e                	mv	s8,a5
    80002514:	0611                	addi	a2,a2,4
    80002516:	2785                	addiw	a5,a5,1
    80002518:	02d775b3          	remu	a1,a4,a3
    8000251c:	feb62e23          	sw	a1,-4(a2)
    80002520:	fed777e3          	bgeu	a4,a3,8000250e <vprintfmt+0x142>
    80002524:	0197dc63          	bge	a5,s9,8000253c <vprintfmt+0x170>
    80002528:	2d01                	sext.w	s10,s10
    8000252a:	3cfd                	addiw	s9,s9,-1
    8000252c:	fff7899b          	addiw	s3,a5,-1
    80002530:	85ca                	mv	a1,s2
    80002532:	856a                	mv	a0,s10
    80002534:	3cfd                	addiw	s9,s9,-1
    80002536:	9482                	jalr	s1
    80002538:	ff3c9ce3          	bne	s9,s3,80002530 <vprintfmt+0x164>
    8000253c:	0c0a                	slli	s8,s8,0x2
    8000253e:	018109b3          	add	s3,sp,s8
    80002542:	ffc10c93          	addi	s9,sp,-4
    80002546:	4c25                	li	s8,9
    80002548:	0009a783          	lw	a5,0(s3)
    8000254c:	03000513          	li	a0,48
    80002550:	00fc7463          	bgeu	s8,a5,80002558 <vprintfmt+0x18c>
    80002554:	05700513          	li	a0,87
    80002558:	9d3d                	addw	a0,a0,a5
    8000255a:	85ca                	mv	a1,s2
    8000255c:	19f1                	addi	s3,s3,-4
    8000255e:	9482                	jalr	s1
    80002560:	ff9994e3          	bne	s3,s9,80002548 <vprintfmt+0x17c>
    80002564:	b555                	j	80002408 <vprintfmt+0x3c>
    80002566:	4785                	li	a5,1
    80002568:	008b8c13          	addi	s8,s7,8
    8000256c:	00c7c363          	blt	a5,a2,80002572 <vprintfmt+0x1a6>
    80002570:	c25d                	beqz	a2,80002616 <vprintfmt+0x24a>
    80002572:	000bb983          	ld	s3,0(s7)
    80002576:	0a09c763          	bltz	s3,80002624 <vprintfmt+0x258>
    8000257a:	874e                	mv	a4,s3
    8000257c:	8be2                	mv	s7,s8
    8000257e:	46a9                	li	a3,10
    80002580:	b741                	j	80002500 <vprintfmt+0x134>
    80002582:	00174683          	lbu	a3,1(a4)
    80002586:	2605                	addiw	a2,a2,1
    80002588:	8722                	mv	a4,s0
    8000258a:	bd69                	j	80002424 <vprintfmt+0x58>
    8000258c:	46c1                	li	a3,16
    8000258e:	4705                	li	a4,1
    80002590:	008b8793          	addi	a5,s7,8
    80002594:	f6c743e3          	blt	a4,a2,800024fa <vprintfmt+0x12e>
    80002598:	f22d                	bnez	a2,800024fa <vprintfmt+0x12e>
    8000259a:	000be703          	lwu	a4,0(s7)
    8000259e:	8bbe                	mv	s7,a5
    800025a0:	b785                	j	80002500 <vprintfmt+0x134>
    800025a2:	000bbc03          	ld	s8,0(s7)
    800025a6:	2d01                	sext.w	s10,s10
    800025a8:	fd3d0793          	addi	a5,s10,-45
    800025ac:	00f037b3          	snez	a5,a5
    800025b0:	01902733          	sgtz	a4,s9
    800025b4:	8f7d                	and	a4,a4,a5
    800025b6:	0ba1                	addi	s7,s7,8
    800025b8:	060c0f63          	beqz	s8,80002636 <vprintfmt+0x26a>
    800025bc:	e741                	bnez	a4,80002644 <vprintfmt+0x278>
    800025be:	000c4503          	lbu	a0,0(s8)
    800025c2:	cd11                	beqz	a0,800025de <vprintfmt+0x212>
    800025c4:	5d7d                	li	s10,-1
    800025c6:	0009c563          	bltz	s3,800025d0 <vprintfmt+0x204>
    800025ca:	39fd                	addiw	s3,s3,-1
    800025cc:	01a98963          	beq	s3,s10,800025de <vprintfmt+0x212>
    800025d0:	85ca                	mv	a1,s2
    800025d2:	9482                	jalr	s1
    800025d4:	001c4503          	lbu	a0,1(s8)
    800025d8:	0c05                	addi	s8,s8,1
    800025da:	3cfd                	addiw	s9,s9,-1
    800025dc:	f56d                	bnez	a0,800025c6 <vprintfmt+0x1fa>
    800025de:	e39055e3          	blez	s9,80002408 <vprintfmt+0x3c>
    800025e2:	85ca                	mv	a1,s2
    800025e4:	02000513          	li	a0,32
    800025e8:	3cfd                	addiw	s9,s9,-1
    800025ea:	9482                	jalr	s1
    800025ec:	fe0c9be3          	bnez	s9,800025e2 <vprintfmt+0x216>
    800025f0:	bd21                	j	80002408 <vprintfmt+0x3c>
    800025f2:	87e6                	mv	a5,s9
    800025f4:	000cd363          	bgez	s9,800025fa <vprintfmt+0x22e>
    800025f8:	4781                	li	a5,0
    800025fa:	00174683          	lbu	a3,1(a4)
    800025fe:	00078c9b          	sext.w	s9,a5
    80002602:	8722                	mv	a4,s0
    80002604:	b505                	j	80002424 <vprintfmt+0x58>
    80002606:	000ba503          	lw	a0,0(s7)
    8000260a:	85ca                	mv	a1,s2
    8000260c:	0ba1                	addi	s7,s7,8
    8000260e:	9482                	jalr	s1
    80002610:	bbe5                	j	80002408 <vprintfmt+0x3c>
    80002612:	4c01                	li	s8,0
    80002614:	bf01                	j	80002524 <vprintfmt+0x158>
    80002616:	000ba983          	lw	s3,0(s7)
    8000261a:	bfb1                	j	80002576 <vprintfmt+0x1aa>
    8000261c:	46a9                	li	a3,10
    8000261e:	bf85                	j	8000258e <vprintfmt+0x1c2>
    80002620:	46a1                	li	a3,8
    80002622:	b7b5                	j	8000258e <vprintfmt+0x1c2>
    80002624:	85ca                	mv	a1,s2
    80002626:	02d00513          	li	a0,45
    8000262a:	9482                	jalr	s1
    8000262c:	41300733          	neg	a4,s3
    80002630:	8be2                	mv	s7,s8
    80002632:	46a9                	li	a3,10
    80002634:	b5f1                	j	80002500 <vprintfmt+0x134>
    80002636:	00000c17          	auipc	s8,0x0
    8000263a:	59ac0c13          	addi	s8,s8,1434 # 80002bd0 <main+0xea>
    8000263e:	02800513          	li	a0,40
    80002642:	d349                	beqz	a4,800025c4 <vprintfmt+0x1f8>
    80002644:	87e2                	mv	a5,s8
    80002646:	013c06b3          	add	a3,s8,s3
    8000264a:	00099663          	bnez	s3,80002656 <vprintfmt+0x28a>
    8000264e:	a829                	j	80002668 <vprintfmt+0x29c>
    80002650:	0785                	addi	a5,a5,1
    80002652:	00d78563          	beq	a5,a3,8000265c <vprintfmt+0x290>
    80002656:	0007c703          	lbu	a4,0(a5)
    8000265a:	fb7d                	bnez	a4,80002650 <vprintfmt+0x284>
    8000265c:	418787b3          	sub	a5,a5,s8
    80002660:	40fc8cbb          	subw	s9,s9,a5
    80002664:	01905863          	blez	s9,80002674 <vprintfmt+0x2a8>
    80002668:	85ca                	mv	a1,s2
    8000266a:	856a                	mv	a0,s10
    8000266c:	3cfd                	addiw	s9,s9,-1
    8000266e:	9482                	jalr	s1
    80002670:	fe0c9ce3          	bnez	s9,80002668 <vprintfmt+0x29c>
    80002674:	000c4503          	lbu	a0,0(s8)
    80002678:	d80508e3          	beqz	a0,80002408 <vprintfmt+0x3c>
    8000267c:	5d7d                	li	s10,-1
    8000267e:	b7a1                	j	800025c6 <vprintfmt+0x1fa>
    80002680:	8722                	mv	a4,s0
    80002682:	bd25                	j	800024ba <vprintfmt+0xee>

0000000080002684 <sprintf_putch.0>:
    80002684:	619c                	ld	a5,0(a1)
    80002686:	00a78023          	sb	a0,0(a5)
    8000268a:	619c                	ld	a5,0(a1)
    8000268c:	0785                	addi	a5,a5,1
    8000268e:	e19c                	sd	a5,0(a1)
    80002690:	8082                	ret

0000000080002692 <putchar>:
    80002692:	04022783          	lw	a5,64(tp) # 40 <buflen.1>
    80002696:	00020713          	mv	a4,tp
    8000269a:	7159                	addi	sp,sp,-112
    8000269c:	973e                	add	a4,a4,a5
    8000269e:	2785                	addiw	a5,a5,1
    800026a0:	00a70023          	sb	a0,0(a4)
    800026a4:	04f22023          	sw	a5,64(tp) # 40 <buflen.1>
    800026a8:	03f10713          	addi	a4,sp,63
    800026ac:	fc078593          	addi	a1,a5,-64
    800026b0:	fc077713          	andi	a4,a4,-64
    800026b4:	c591                	beqz	a1,800026c0 <putchar+0x2e>
    800026b6:	1559                	addi	a0,a0,-10
    800026b8:	c501                	beqz	a0,800026c0 <putchar+0x2e>
    800026ba:	4501                	li	a0,0
    800026bc:	6165                	addi	sp,sp,112
    800026be:	8082                	ret
    800026c0:	04000593          	li	a1,64
    800026c4:	e30c                	sd	a1,0(a4)
    800026c6:	4585                	li	a1,1
    800026c8:	e70c                	sd	a1,8(a4)
    800026ca:	00020693          	mv	a3,tp
    800026ce:	eb14                	sd	a3,16(a4)
    800026d0:	ef1c                	sd	a5,24(a4)
    800026d2:	0330000f          	fence	rw,rw
    800026d6:	fffff697          	auipc	a3,0xfffff
    800026da:	96a68693          	addi	a3,a3,-1686 # 80001040 <fromhost>
    800026de:	fffff797          	auipc	a5,0xfffff
    800026e2:	92e7b123          	sd	a4,-1758(a5) # 80001000 <tohost>
    800026e6:	629c                	ld	a5,0(a3)
    800026e8:	dffd                	beqz	a5,800026e6 <putchar+0x54>
    800026ea:	fffff797          	auipc	a5,0xfffff
    800026ee:	9407bb23          	sd	zero,-1706(a5) # 80001040 <fromhost>
    800026f2:	0330000f          	fence	rw,rw
    800026f6:	04022023          	sw	zero,64(tp) # 40 <buflen.1>
    800026fa:	631c                	ld	a5,0(a4)
    800026fc:	4501                	li	a0,0
    800026fe:	6165                	addi	sp,sp,112
    80002700:	8082                	ret

0000000080002702 <setStats>:
    80002702:	b0002773          	csrr	a4,mcycle
    80002706:	00005797          	auipc	a5,0x5
    8000270a:	8fa78793          	addi	a5,a5,-1798 # 80007000 <counters>
    8000270e:	c511                	beqz	a0,8000271a <setStats+0x18>
    80002710:	e398                	sd	a4,0(a5)
    80002712:	b0202773          	csrr	a4,minstret
    80002716:	e798                	sd	a4,8(a5)
    80002718:	8082                	ret
    8000271a:	6394                	ld	a3,0(a5)
    8000271c:	00000617          	auipc	a2,0x0
    80002720:	4c460613          	addi	a2,a2,1220 # 80002be0 <main+0xfa>
    80002724:	eb90                	sd	a2,16(a5)
    80002726:	8f15                	sub	a4,a4,a3
    80002728:	e398                	sd	a4,0(a5)
    8000272a:	b0202773          	csrr	a4,minstret
    8000272e:	6794                	ld	a3,8(a5)
    80002730:	00000617          	auipc	a2,0x0
    80002734:	4b860613          	addi	a2,a2,1208 # 80002be8 <main+0x102>
    80002738:	ef90                	sd	a2,24(a5)
    8000273a:	8f15                	sub	a4,a4,a3
    8000273c:	e798                	sd	a4,8(a5)
    8000273e:	8082                	ret

0000000080002740 <tohost_exit>:
    80002740:	00151793          	slli	a5,a0,0x1
    80002744:	0017e793          	ori	a5,a5,1
    80002748:	fffff717          	auipc	a4,0xfffff
    8000274c:	8af73c23          	sd	a5,-1864(a4) # 80001000 <tohost>
    80002750:	a001                	j	80002750 <tohost_exit+0x10>
    80002752:	6785                	lui	a5,0x1
    80002754:	a7378793          	addi	a5,a5,-1421 # a73 <buflen.1+0xa33>
    80002758:	fffff717          	auipc	a4,0xfffff
    8000275c:	8af73423          	sd	a5,-1880(a4) # 80001000 <tohost>
    80002760:	a001                	j	80002760 <tohost_exit+0x20>

0000000080002762 <exit>:
    80002762:	1141                	addi	sp,sp,-16
    80002764:	e406                	sd	ra,8(sp)
    80002766:	fdbff0ef          	jal	80002740 <tohost_exit>

000000008000276a <abort>:
    8000276a:	10d00793          	li	a5,269
    8000276e:	fffff717          	auipc	a4,0xfffff
    80002772:	88f73923          	sd	a5,-1902(a4) # 80001000 <tohost>
    80002776:	a001                	j	80002776 <abort+0xc>

0000000080002778 <printstr>:
    80002778:	00054783          	lbu	a5,0(a0)
    8000277c:	7159                	addi	sp,sp,-112
    8000277e:	03f10693          	addi	a3,sp,63
    80002782:	fc06f693          	andi	a3,a3,-64
    80002786:	c799                	beqz	a5,80002794 <printstr+0x1c>
    80002788:	87aa                	mv	a5,a0
    8000278a:	0017c703          	lbu	a4,1(a5)
    8000278e:	0785                	addi	a5,a5,1
    80002790:	ff6d                	bnez	a4,8000278a <printstr+0x12>
    80002792:	8f89                	sub	a5,a5,a0
    80002794:	04000713          	li	a4,64
    80002798:	e298                	sd	a4,0(a3)
    8000279a:	4705                	li	a4,1
    8000279c:	e698                	sd	a4,8(a3)
    8000279e:	ea88                	sd	a0,16(a3)
    800027a0:	ee9c                	sd	a5,24(a3)
    800027a2:	0330000f          	fence	rw,rw
    800027a6:	fffff717          	auipc	a4,0xfffff
    800027aa:	89a70713          	addi	a4,a4,-1894 # 80001040 <fromhost>
    800027ae:	fffff797          	auipc	a5,0xfffff
    800027b2:	84d7b923          	sd	a3,-1966(a5) # 80001000 <tohost>
    800027b6:	631c                	ld	a5,0(a4)
    800027b8:	dffd                	beqz	a5,800027b6 <printstr+0x3e>
    800027ba:	fffff797          	auipc	a5,0xfffff
    800027be:	8807b323          	sd	zero,-1914(a5) # 80001040 <fromhost>
    800027c2:	0330000f          	fence	rw,rw
    800027c6:	629c                	ld	a5,0(a3)
    800027c8:	6165                	addi	sp,sp,112
    800027ca:	8082                	ret

00000000800027cc <thread_entry>:
    800027cc:	e111                	bnez	a0,800027d0 <thread_entry+0x4>
    800027ce:	8082                	ret
    800027d0:	a001                	j	800027d0 <thread_entry+0x4>

00000000800027d2 <printhex>:
    800027d2:	7179                	addi	sp,sp,-48
    800027d4:	86aa                	mv	a3,a0
    800027d6:	f406                	sd	ra,40(sp)
    800027d8:	0028                	addi	a0,sp,8
    800027da:	01710713          	addi	a4,sp,23
    800027de:	45a5                	li	a1,9
    800027e0:	a011                	j	800027e4 <printhex+0x12>
    800027e2:	177d                	addi	a4,a4,-1
    800027e4:	00f6f793          	andi	a5,a3,15
    800027e8:	03000613          	li	a2,48
    800027ec:	00f5f463          	bgeu	a1,a5,800027f4 <printhex+0x22>
    800027f0:	05700613          	li	a2,87
    800027f4:	9fb1                	addw	a5,a5,a2
    800027f6:	00f70023          	sb	a5,0(a4)
    800027fa:	8291                	srli	a3,a3,0x4
    800027fc:	fee513e3          	bne	a0,a4,800027e2 <printhex+0x10>
    80002800:	00010c23          	sb	zero,24(sp)
    80002804:	f75ff0ef          	jal	80002778 <printstr>
    80002808:	70a2                	ld	ra,40(sp)
    8000280a:	6145                	addi	sp,sp,48
    8000280c:	8082                	ret

000000008000280e <printf>:
    8000280e:	711d                	addi	sp,sp,-96
    80002810:	02810313          	addi	t1,sp,40
    80002814:	f42e                	sd	a1,40(sp)
    80002816:	f832                	sd	a2,48(sp)
    80002818:	fc36                	sd	a3,56(sp)
    8000281a:	862a                	mv	a2,a0
    8000281c:	869a                	mv	a3,t1
    8000281e:	00000517          	auipc	a0,0x0
    80002822:	e7450513          	addi	a0,a0,-396 # 80002692 <putchar>
    80002826:	4581                	li	a1,0
    80002828:	ec06                	sd	ra,24(sp)
    8000282a:	e0ba                	sd	a4,64(sp)
    8000282c:	e4be                	sd	a5,72(sp)
    8000282e:	e8c2                	sd	a6,80(sp)
    80002830:	ecc6                	sd	a7,88(sp)
    80002832:	e41a                	sd	t1,8(sp)
    80002834:	b99ff0ef          	jal	800023cc <vprintfmt>
    80002838:	60e2                	ld	ra,24(sp)
    8000283a:	4501                	li	a0,0
    8000283c:	6125                	addi	sp,sp,96
    8000283e:	8082                	ret

0000000080002840 <sprintf>:
    80002840:	711d                	addi	sp,sp,-96
    80002842:	03010313          	addi	t1,sp,48
    80002846:	f022                	sd	s0,32(sp)
    80002848:	e42a                	sd	a0,8(sp)
    8000284a:	f832                	sd	a2,48(sp)
    8000284c:	fc36                	sd	a3,56(sp)
    8000284e:	842a                	mv	s0,a0
    80002850:	862e                	mv	a2,a1
    80002852:	00000517          	auipc	a0,0x0
    80002856:	e3250513          	addi	a0,a0,-462 # 80002684 <sprintf_putch.0>
    8000285a:	002c                	addi	a1,sp,8
    8000285c:	869a                	mv	a3,t1
    8000285e:	f406                	sd	ra,40(sp)
    80002860:	e4be                	sd	a5,72(sp)
    80002862:	e0ba                	sd	a4,64(sp)
    80002864:	e8c2                	sd	a6,80(sp)
    80002866:	ecc6                	sd	a7,88(sp)
    80002868:	ec1a                	sd	t1,24(sp)
    8000286a:	b63ff0ef          	jal	800023cc <vprintfmt>
    8000286e:	67a2                	ld	a5,8(sp)
    80002870:	00078023          	sb	zero,0(a5)
    80002874:	6522                	ld	a0,8(sp)
    80002876:	70a2                	ld	ra,40(sp)
    80002878:	9d01                	subw	a0,a0,s0
    8000287a:	7402                	ld	s0,32(sp)
    8000287c:	6125                	addi	sp,sp,96
    8000287e:	8082                	ret

0000000080002880 <memcpy>:
    80002880:	00c5e7b3          	or	a5,a1,a2
    80002884:	8fc9                	or	a5,a5,a0
    80002886:	8b9d                	andi	a5,a5,7
    80002888:	83ae                	mv	t2,a1
    8000288a:	00c506b3          	add	a3,a0,a2
    8000288e:	cf91                	beqz	a5,800028aa <memcpy+0x2a>
    80002890:	962e                	add	a2,a2,a1
    80002892:	87aa                	mv	a5,a0
    80002894:	08d57a63          	bgeu	a0,a3,80002928 <memcpy+0xa8>
    80002898:	0005c703          	lbu	a4,0(a1)
    8000289c:	0585                	addi	a1,a1,1
    8000289e:	0785                	addi	a5,a5,1
    800028a0:	fee78fa3          	sb	a4,-1(a5)
    800028a4:	fec59ae3          	bne	a1,a2,80002898 <memcpy+0x18>
    800028a8:	8082                	ret
    800028aa:	04050713          	addi	a4,a0,64
    800028ae:	06d77e63          	bgeu	a4,a3,8000292a <memcpy+0xaa>
    800028b2:	87ba                	mv	a5,a4
    800028b4:	0005b283          	ld	t0,0(a1)
    800028b8:	0085bf83          	ld	t6,8(a1)
    800028bc:	0105bf03          	ld	t5,16(a1)
    800028c0:	0185be83          	ld	t4,24(a1)
    800028c4:	0205be03          	ld	t3,32(a1)
    800028c8:	0285b303          	ld	t1,40(a1)
    800028cc:	0305b883          	ld	a7,48(a1)
    800028d0:	0385b803          	ld	a6,56(a1)
    800028d4:	04078793          	addi	a5,a5,64
    800028d8:	f857b023          	sd	t0,-128(a5)
    800028dc:	f9f7b423          	sd	t6,-120(a5)
    800028e0:	f9e7b823          	sd	t5,-112(a5)
    800028e4:	f9d7bc23          	sd	t4,-104(a5)
    800028e8:	fbc7b023          	sd	t3,-96(a5)
    800028ec:	fa67b423          	sd	t1,-88(a5)
    800028f0:	fb17b823          	sd	a7,-80(a5)
    800028f4:	fb07bc23          	sd	a6,-72(a5)
    800028f8:	04058593          	addi	a1,a1,64
    800028fc:	fad7ece3          	bltu	a5,a3,800028b4 <memcpy+0x34>
    80002900:	fbf60613          	addi	a2,a2,-65
    80002904:	fc067613          	andi	a2,a2,-64
    80002908:	04038393          	addi	t2,t2,64
    8000290c:	00c707b3          	add	a5,a4,a2
    80002910:	00c385b3          	add	a1,t2,a2
    80002914:	f8d7fae3          	bgeu	a5,a3,800028a8 <memcpy+0x28>
    80002918:	6198                	ld	a4,0(a1)
    8000291a:	07a1                	addi	a5,a5,8
    8000291c:	05a1                	addi	a1,a1,8
    8000291e:	fee7bc23          	sd	a4,-8(a5)
    80002922:	fed7ebe3          	bltu	a5,a3,80002918 <memcpy+0x98>
    80002926:	8082                	ret
    80002928:	8082                	ret
    8000292a:	87aa                	mv	a5,a0
    8000292c:	b7e5                	j	80002914 <memcpy+0x94>

000000008000292e <memset>:
    8000292e:	00c567b3          	or	a5,a0,a2
    80002932:	8b9d                	andi	a5,a5,7
    80002934:	962a                	add	a2,a2,a0
    80002936:	cb91                	beqz	a5,8000294a <memset+0x1c>
    80002938:	87aa                	mv	a5,a0
    8000293a:	02c57c63          	bgeu	a0,a2,80002972 <memset+0x44>
    8000293e:	0785                	addi	a5,a5,1
    80002940:	feb78fa3          	sb	a1,-1(a5)
    80002944:	fef61de3          	bne	a2,a5,8000293e <memset+0x10>
    80002948:	8082                	ret
    8000294a:	fec57fe3          	bgeu	a0,a2,80002948 <memset+0x1a>
    8000294e:	010107b7          	lui	a5,0x1010
    80002952:	10178793          	addi	a5,a5,257 # 1010101 <buflen.1+0x10100c1>
    80002956:	02079713          	slli	a4,a5,0x20
    8000295a:	973e                	add	a4,a4,a5
    8000295c:	0ff5f593          	zext.b	a1,a1
    80002960:	02e585b3          	mul	a1,a1,a4
    80002964:	87aa                	mv	a5,a0
    80002966:	07a1                	addi	a5,a5,8
    80002968:	feb7bc23          	sd	a1,-8(a5)
    8000296c:	fec7ede3          	bltu	a5,a2,80002966 <memset+0x38>
    80002970:	8082                	ret
    80002972:	8082                	ret

0000000080002974 <_init>:
    80002974:	7171                	addi	sp,sp,-176
    80002976:	00004797          	auipc	a5,0x4
    8000297a:	6aa78793          	addi	a5,a5,1706 # 80007020 <_tdata_begin>
    8000297e:	f122                	sd	s0,160(sp)
    80002980:	00004417          	auipc	s0,0x4
    80002984:	6a040413          	addi	s0,s0,1696 # 80007020 <_tdata_begin>
    80002988:	ed26                	sd	s1,152(sp)
    8000298a:	40f404b3          	sub	s1,s0,a5
    8000298e:	8626                	mv	a2,s1
    80002990:	e54e                	sd	s3,136(sp)
    80002992:	e152                	sd	s4,128(sp)
    80002994:	89aa                	mv	s3,a0
    80002996:	8a2e                	mv	s4,a1
    80002998:	8512                	mv	a0,tp
    8000299a:	85be                	mv	a1,a5
    8000299c:	f506                	sd	ra,168(sp)
    8000299e:	e94a                	sd	s2,144(sp)
    800029a0:	fcd6                	sd	s5,120(sp)
    800029a2:	8a92                	mv	s5,tp
    800029a4:	eddff0ef          	jal	80002880 <memcpy>
    800029a8:	00004617          	auipc	a2,0x4
    800029ac:	6dc60613          	addi	a2,a2,1756 # 80007084 <_tbss_end>
    800029b0:	8e01                	sub	a2,a2,s0
    800029b2:	009a8533          	add	a0,s5,s1
    800029b6:	4581                	li	a1,0
    800029b8:	f77ff0ef          	jal	8000292e <memset>
    800029bc:	85d2                	mv	a1,s4
    800029be:	854e                	mv	a0,s3
    800029c0:	e0dff0ef          	jal	800027cc <thread_entry>
    800029c4:	03f10913          	addi	s2,sp,63
    800029c8:	4581                	li	a1,0
    800029ca:	4501                	li	a0,0
    800029cc:	fc097913          	andi	s2,s2,-64
    800029d0:	116000ef          	jal	80002ae6 <main>
    800029d4:	00004497          	auipc	s1,0x4
    800029d8:	63c48493          	addi	s1,s1,1596 # 80007010 <counter_names>
    800029dc:	8aaa                	mv	s5,a0
    800029de:	89ca                	mv	s3,s2
    800029e0:	8a26                	mv	s4,s1
    800029e2:	00004417          	auipc	s0,0x4
    800029e6:	61e40413          	addi	s0,s0,1566 # 80007000 <counters>
    800029ea:	6014                	ld	a3,0(s0)
    800029ec:	ee89                	bnez	a3,80002a06 <_init+0x92>
    800029ee:	0421                	addi	s0,s0,8
    800029f0:	04a1                	addi	s1,s1,8
    800029f2:	ff441ce3          	bne	s0,s4,800029ea <_init+0x76>
    800029f6:	01390563          	beq	s2,s3,80002a00 <_init+0x8c>
    800029fa:	854a                	mv	a0,s2
    800029fc:	d7dff0ef          	jal	80002778 <printstr>
    80002a00:	8556                	mv	a0,s5
    80002a02:	d3fff0ef          	jal	80002740 <tohost_exit>
    80002a06:	6090                	ld	a2,0(s1)
    80002a08:	854e                	mv	a0,s3
    80002a0a:	00000597          	auipc	a1,0x0
    80002a0e:	20658593          	addi	a1,a1,518 # 80002c10 <main+0x12a>
    80002a12:	e2fff0ef          	jal	80002840 <sprintf>
    80002a16:	99aa                	add	s3,s3,a0
    80002a18:	bfd9                	j	800029ee <_init+0x7a>

0000000080002a1a <strlen>:
    80002a1a:	00054783          	lbu	a5,0(a0)
    80002a1e:	cb89                	beqz	a5,80002a30 <strlen+0x16>
    80002a20:	87aa                	mv	a5,a0
    80002a22:	0017c703          	lbu	a4,1(a5)
    80002a26:	0785                	addi	a5,a5,1
    80002a28:	ff6d                	bnez	a4,80002a22 <strlen+0x8>
    80002a2a:	40a78533          	sub	a0,a5,a0
    80002a2e:	8082                	ret
    80002a30:	4501                	li	a0,0
    80002a32:	8082                	ret

0000000080002a34 <strnlen>:
    80002a34:	00b506b3          	add	a3,a0,a1
    80002a38:	87aa                	mv	a5,a0
    80002a3a:	e589                	bnez	a1,80002a44 <strnlen+0x10>
    80002a3c:	a811                	j	80002a50 <strnlen+0x1c>
    80002a3e:	0785                	addi	a5,a5,1
    80002a40:	00d78563          	beq	a5,a3,80002a4a <strnlen+0x16>
    80002a44:	0007c703          	lbu	a4,0(a5)
    80002a48:	fb7d                	bnez	a4,80002a3e <strnlen+0xa>
    80002a4a:	40a78533          	sub	a0,a5,a0
    80002a4e:	8082                	ret
    80002a50:	4501                	li	a0,0
    80002a52:	8082                	ret

0000000080002a54 <strcmp>:
    80002a54:	00054783          	lbu	a5,0(a0)
    80002a58:	0505                	addi	a0,a0,1
    80002a5a:	0585                	addi	a1,a1,1
    80002a5c:	0007869b          	sext.w	a3,a5
    80002a60:	fff5c703          	lbu	a4,-1(a1)
    80002a64:	c399                	beqz	a5,80002a6a <strcmp+0x16>
    80002a66:	fee687e3          	beq	a3,a4,80002a54 <strcmp>
    80002a6a:	40e7853b          	subw	a0,a5,a4
    80002a6e:	8082                	ret

0000000080002a70 <strcpy>:
    80002a70:	87aa                	mv	a5,a0
    80002a72:	0005c703          	lbu	a4,0(a1)
    80002a76:	0585                	addi	a1,a1,1
    80002a78:	0785                	addi	a5,a5,1
    80002a7a:	fee78fa3          	sb	a4,-1(a5)
    80002a7e:	fb75                	bnez	a4,80002a72 <strcpy+0x2>
    80002a80:	8082                	ret

0000000080002a82 <atol>:
    80002a82:	00054703          	lbu	a4,0(a0)
    80002a86:	02000693          	li	a3,32
    80002a8a:	87aa                	mv	a5,a0
    80002a8c:	00d71763          	bne	a4,a3,80002a9a <atol+0x18>
    80002a90:	0017c703          	lbu	a4,1(a5)
    80002a94:	0785                	addi	a5,a5,1
    80002a96:	fed70de3          	beq	a4,a3,80002a90 <atol+0xe>
    80002a9a:	fd57069b          	addiw	a3,a4,-43
    80002a9e:	0fd6f693          	andi	a3,a3,253
    80002aa2:	ea95                	bnez	a3,80002ad6 <atol+0x54>
    80002aa4:	0017c683          	lbu	a3,1(a5)
    80002aa8:	fd370713          	addi	a4,a4,-45
    80002aac:	00173613          	seqz	a2,a4
    80002ab0:	ca8d                	beqz	a3,80002ae2 <atol+0x60>
    80002ab2:	0785                	addi	a5,a5,1
    80002ab4:	4501                	li	a0,0
    80002ab6:	0785                	addi	a5,a5,1
    80002ab8:	fd06859b          	addiw	a1,a3,-48
    80002abc:	00251713          	slli	a4,a0,0x2
    80002ac0:	0007c683          	lbu	a3,0(a5)
    80002ac4:	972a                	add	a4,a4,a0
    80002ac6:	0706                	slli	a4,a4,0x1
    80002ac8:	00e58533          	add	a0,a1,a4
    80002acc:	f6ed                	bnez	a3,80002ab6 <atol+0x34>
    80002ace:	c219                	beqz	a2,80002ad4 <atol+0x52>
    80002ad0:	40a00533          	neg	a0,a0
    80002ad4:	8082                	ret
    80002ad6:	0007c683          	lbu	a3,0(a5)
    80002ada:	4601                	li	a2,0
    80002adc:	fee1                	bnez	a3,80002ab4 <atol+0x32>
    80002ade:	4501                	li	a0,0
    80002ae0:	8082                	ret
    80002ae2:	4501                	li	a0,0
    80002ae4:	b7ed                	j	80002ace <atol+0x4c>

Disassembly of section .text.startup:

0000000080002ae6 <main>:
    80002ae6:	1141                	addi	sp,sp,-16
    80002ae8:	e406                	sd	ra,8(sp)
    80002aea:	3a005073          	csrwi	pmpcfg0,0
    80002aee:	57fd                	li	a5,-1
    80002af0:	3b079073          	csrw	pmpaddr0,a5
    80002af4:	3b002673          	csrr	a2,pmpaddr0
    80002af8:	4789                	li	a5,2
    80002afa:	4705                	li	a4,1
    80002afc:	04200593          	li	a1,66
    80002b00:	a029                	j	80002b0a <main+0x24>
    80002b02:	2785                	addiw	a5,a5,1
    80002b04:	0706                	slli	a4,a4,0x1
    80002b06:	00b78563          	beq	a5,a1,80002b10 <main+0x2a>
    80002b0a:	00e676b3          	and	a3,a2,a4
    80002b0e:	daf5                	beqz	a3,80002b02 <main+0x1c>
    80002b10:	00001e17          	auipc	t3,0x1
    80002b14:	4f0e0e13          	addi	t3,t3,1264 # 80004000 <l2pt>
    80002b18:	00000897          	auipc	a7,0x0
    80002b1c:	4e888893          	addi	a7,a7,1256 # 80003000 <l3pt>
    80002b20:	00003717          	auipc	a4,0x3
    80002b24:	4e070713          	addi	a4,a4,1248 # 80006000 <scratch>
    80002b28:	00c8d613          	srli	a2,a7,0xc
    80002b2c:	00ce5693          	srli	a3,t3,0xc
    80002b30:	8331                	srli	a4,a4,0xc
    80002b32:	00002317          	auipc	t1,0x2
    80002b36:	4ce30313          	addi	t1,t1,1230 # 80005000 <l1pt>
    80002b3a:	4505                	li	a0,1
    80002b3c:	587d                	li	a6,-1
    80002b3e:	062a                	slli	a2,a2,0xa
    80002b40:	06aa                	slli	a3,a3,0xa
    80002b42:	072a                	slli	a4,a4,0xa
    80002b44:	8e49                	or	a2,a2,a0
    80002b46:	8ec9                	or	a3,a3,a0
    80002b48:	0c776713          	ori	a4,a4,199
    80002b4c:	00f51533          	sll	a0,a0,a5
    80002b50:	00c35593          	srli	a1,t1,0xc
    80002b54:	03f81e93          	slli	t4,a6,0x3f
    80002b58:	00e8b423          	sd	a4,8(a7)
    80002b5c:	00ce3023          	sd	a2,0(t3)
    80002b60:	00d33023          	sd	a3,0(t1)
    80002b64:	01d5e7b3          	or	a5,a1,t4
    80002b68:	00000717          	auipc	a4,0x0
    80002b6c:	20a72623          	sw	a0,524(a4) # 80002d74 <granule>
    80002b70:	18079073          	csrw	satp,a5
    80002b74:	3b281073          	csrw	pmpaddr2,a6
    80002b78:	001907b7          	lui	a5,0x190
    80002b7c:	3a079073          	csrw	pmpcfg0,a5
    80002b80:	6505                	lui	a0,0x1
    80002b82:	f9cff0ef          	jal	8000231e <exhaustive_test.constprop.0>
    80002b86:	6509                	lui	a0,0x2
    80002b88:	1501                	addi	a0,a0,-32 # 1fe0 <buflen.1+0x1fa0>
    80002b8a:	f94ff0ef          	jal	8000231e <exhaustive_test.constprop.0>
    80002b8e:	6585                	lui	a1,0x1
    80002b90:	852e                	mv	a0,a1
    80002b92:	c6eff0ef          	jal	80002000 <test_range>
    80002b96:	6505                	lui	a0,0x1
    80002b98:	80050593          	addi	a1,a0,-2048 # 800 <buflen.1+0x7c0>
    80002b9c:	c64ff0ef          	jal	80002000 <test_range>
    80002ba0:	6505                	lui	a0,0x1
    80002ba2:	80050593          	addi	a1,a0,-2048 # 800 <buflen.1+0x7c0>
    80002ba6:	6509                	lui	a0,0x2
    80002ba8:	80050513          	addi	a0,a0,-2048 # 1800 <buflen.1+0x17c0>
    80002bac:	c54ff0ef          	jal	80002000 <test_range>
    80002bb0:	60a2                	ld	ra,8(sp)
    80002bb2:	4501                	li	a0,0
    80002bb4:	0141                	addi	sp,sp,16
    80002bb6:	8082                	ret
    80002bb8:	1141                	addi	sp,sp,-16
    80002bba:	00000517          	auipc	a0,0x0
    80002bbe:	03e50513          	addi	a0,a0,62 # 80002bf8 <main+0x112>
    80002bc2:	e406                	sd	ra,8(sp)
    80002bc4:	bb5ff0ef          	jal	80002778 <printstr>
    80002bc8:	60a2                	ld	ra,8(sp)
    80002bca:	557d                	li	a0,-1
    80002bcc:	0141                	addi	sp,sp,16
    80002bce:	8082                	ret
