
vvadd.riscv:     file format elf64-littleriscv


Disassembly of section .text.init:

0000000080000000 <_start>:
    80000000:	4081                	li	ra,0
    80000002:	4101                	li	sp,0
    80000004:	4181                	li	gp,0
    80000006:	4201                	li	tp,0
    80000008:	4281                	li	t0,0
    8000000a:	4301                	li	t1,0
    8000000c:	4381                	li	t2,0
    8000000e:	4401                	li	s0,0
    80000010:	4481                	li	s1,0
    80000012:	4501                	li	a0,0
    80000014:	4581                	li	a1,0
    80000016:	4601                	li	a2,0
    80000018:	4681                	li	a3,0
    8000001a:	4701                	li	a4,0
    8000001c:	4781                	li	a5,0
    8000001e:	4801                	li	a6,0
    80000020:	4881                	li	a7,0
    80000022:	4901                	li	s2,0
    80000024:	4981                	li	s3,0
    80000026:	4a01                	li	s4,0
    80000028:	4a81                	li	s5,0
    8000002a:	4b01                	li	s6,0
    8000002c:	4b81                	li	s7,0
    8000002e:	4c01                	li	s8,0
    80000030:	4c81                	li	s9,0
    80000032:	4d01                	li	s10,0
    80000034:	4d81                	li	s11,0
    80000036:	4e01                	li	t3,0
    80000038:	4e81                	li	t4,0
    8000003a:	4f01                	li	t5,0
    8000003c:	4f81                	li	t6,0
    8000003e:	62f9                	lui	t0,0x1e
    80000040:	6002829b          	addiw	t0,t0,1536 # 1e600 <buflen.1+0x1e5c0>
    80000044:	3002a073          	csrs	mstatus,t0
    80000048:	4285                	li	t0,1
    8000004a:	02fe                	slli	t0,t0,0x1f
    8000004c:	0002d863          	bgez	t0,8000005c <_start+0x5c>
    80000050:	4505                	li	a0,1
    80000052:	00001297          	auipc	t0,0x1
    80000056:	faa2a723          	sw	a0,-82(t0) # 80001000 <tohost>
    8000005a:	bfdd                	j	80000050 <_start+0x50>
    8000005c:	00000297          	auipc	t0,0x0
    80000060:	09028293          	addi	t0,t0,144 # 800000ec <_start+0xec>
    80000064:	30529073          	csrw	mtvec,t0
    80000068:	00301073          	fscsr	zero
    8000006c:	f0000053          	fmv.w.x	ft0,zero
    80000070:	f00000d3          	fmv.w.x	ft1,zero
    80000074:	f0000153          	fmv.w.x	ft2,zero
    80000078:	f00001d3          	fmv.w.x	ft3,zero
    8000007c:	f0000253          	fmv.w.x	ft4,zero
    80000080:	f00002d3          	fmv.w.x	ft5,zero
    80000084:	f0000353          	fmv.w.x	ft6,zero
    80000088:	f00003d3          	fmv.w.x	ft7,zero
    8000008c:	f0000453          	fmv.w.x	fs0,zero
    80000090:	f00004d3          	fmv.w.x	fs1,zero
    80000094:	f0000553          	fmv.w.x	fa0,zero
    80000098:	f00005d3          	fmv.w.x	fa1,zero
    8000009c:	f0000653          	fmv.w.x	fa2,zero
    800000a0:	f00006d3          	fmv.w.x	fa3,zero
    800000a4:	f0000753          	fmv.w.x	fa4,zero
    800000a8:	f00007d3          	fmv.w.x	fa5,zero
    800000ac:	f0000853          	fmv.w.x	fa6,zero
    800000b0:	f00008d3          	fmv.w.x	fa7,zero
    800000b4:	f0000953          	fmv.w.x	fs2,zero
    800000b8:	f00009d3          	fmv.w.x	fs3,zero
    800000bc:	f0000a53          	fmv.w.x	fs4,zero
    800000c0:	f0000ad3          	fmv.w.x	fs5,zero
    800000c4:	f0000b53          	fmv.w.x	fs6,zero
    800000c8:	f0000bd3          	fmv.w.x	fs7,zero
    800000cc:	f0000c53          	fmv.w.x	fs8,zero
    800000d0:	f0000cd3          	fmv.w.x	fs9,zero
    800000d4:	f0000d53          	fmv.w.x	fs10,zero
    800000d8:	f0000dd3          	fmv.w.x	fs11,zero
    800000dc:	f0000e53          	fmv.w.x	ft8,zero
    800000e0:	f0000ed3          	fmv.w.x	ft9,zero
    800000e4:	f0000f53          	fmv.w.x	ft10,zero
    800000e8:	f0000fd3          	fmv.w.x	ft11,zero
    800000ec:	00000297          	auipc	t0,0x0
    800000f0:	03c28293          	addi	t0,t0,60 # 80000128 <trap_entry>
    800000f4:	30529073          	csrw	mtvec,t0
    800000f8:	00004197          	auipc	gp,0x4
    800000fc:	ec018193          	addi	gp,gp,-320 # 80003fb8 <__global_pointer$>
    80000100:	00003217          	auipc	tp,0x3
    80000104:	73f20213          	addi	tp,tp,1855 # 8000383f <_end+0x3f>
    80000108:	fc027213          	andi	tp,tp,-64
    8000010c:	f1402573          	csrr	a0,mhartid
    80000110:	4585                	li	a1,1
    80000112:	00b57063          	bgeu	a0,a1,80000112 <_start+0x112>
    80000116:	00150113          	addi	sp,a0,1
    8000011a:	0146                	slli	sp,sp,0x11
    8000011c:	9112                	add	sp,sp,tp
    8000011e:	01151613          	slli	a2,a0,0x11
    80000122:	9232                	add	tp,tp,a2
    80000124:	4a00206f          	j	800025c4 <_init>

0000000080000128 <trap_entry>:
    80000128:	716d                	addi	sp,sp,-272
    8000012a:	e406                	sd	ra,8(sp)
    8000012c:	e80a                	sd	sp,16(sp)
    8000012e:	ec0e                	sd	gp,24(sp)
    80000130:	f012                	sd	tp,32(sp)
    80000132:	f416                	sd	t0,40(sp)
    80000134:	f81a                	sd	t1,48(sp)
    80000136:	fc1e                	sd	t2,56(sp)
    80000138:	e0a2                	sd	s0,64(sp)
    8000013a:	e4a6                	sd	s1,72(sp)
    8000013c:	e8aa                	sd	a0,80(sp)
    8000013e:	ecae                	sd	a1,88(sp)
    80000140:	f0b2                	sd	a2,96(sp)
    80000142:	f4b6                	sd	a3,104(sp)
    80000144:	f8ba                	sd	a4,112(sp)
    80000146:	fcbe                	sd	a5,120(sp)
    80000148:	e142                	sd	a6,128(sp)
    8000014a:	e546                	sd	a7,136(sp)
    8000014c:	e94a                	sd	s2,144(sp)
    8000014e:	ed4e                	sd	s3,152(sp)
    80000150:	f152                	sd	s4,160(sp)
    80000152:	f556                	sd	s5,168(sp)
    80000154:	f95a                	sd	s6,176(sp)
    80000156:	fd5e                	sd	s7,184(sp)
    80000158:	e1e2                	sd	s8,192(sp)
    8000015a:	e5e6                	sd	s9,200(sp)
    8000015c:	e9ea                	sd	s10,208(sp)
    8000015e:	edee                	sd	s11,216(sp)
    80000160:	f1f2                	sd	t3,224(sp)
    80000162:	f5f6                	sd	t4,232(sp)
    80000164:	f9fa                	sd	t5,240(sp)
    80000166:	fdfe                	sd	t6,248(sp)
    80000168:	34202573          	csrr	a0,mcause
    8000016c:	341025f3          	csrr	a1,mepc
    80000170:	860a                	mv	a2,sp
    80000172:	230020ef          	jal	800023a2 <handle_trap>
    80000176:	34151073          	csrw	mepc,a0
    8000017a:	6289                	lui	t0,0x2
    8000017c:	8002829b          	addiw	t0,t0,-2048 # 1800 <buflen.1+0x17c0>
    80000180:	3002a073          	csrs	mstatus,t0
    80000184:	60a2                	ld	ra,8(sp)
    80000186:	6142                	ld	sp,16(sp)
    80000188:	61e2                	ld	gp,24(sp)
    8000018a:	7202                	ld	tp,32(sp)
    8000018c:	72a2                	ld	t0,40(sp)
    8000018e:	7342                	ld	t1,48(sp)
    80000190:	73e2                	ld	t2,56(sp)
    80000192:	6406                	ld	s0,64(sp)
    80000194:	64a6                	ld	s1,72(sp)
    80000196:	6546                	ld	a0,80(sp)
    80000198:	65e6                	ld	a1,88(sp)
    8000019a:	7606                	ld	a2,96(sp)
    8000019c:	76a6                	ld	a3,104(sp)
    8000019e:	7746                	ld	a4,112(sp)
    800001a0:	77e6                	ld	a5,120(sp)
    800001a2:	680a                	ld	a6,128(sp)
    800001a4:	68aa                	ld	a7,136(sp)
    800001a6:	694a                	ld	s2,144(sp)
    800001a8:	69ea                	ld	s3,152(sp)
    800001aa:	7a0a                	ld	s4,160(sp)
    800001ac:	7aaa                	ld	s5,168(sp)
    800001ae:	7b4a                	ld	s6,176(sp)
    800001b0:	7bea                	ld	s7,184(sp)
    800001b2:	6c0e                	ld	s8,192(sp)
    800001b4:	6cae                	ld	s9,200(sp)
    800001b6:	6d4e                	ld	s10,208(sp)
    800001b8:	6dee                	ld	s11,216(sp)
    800001ba:	7e0e                	ld	t3,224(sp)
    800001bc:	7eae                	ld	t4,232(sp)
    800001be:	7f4e                	ld	t5,240(sp)
    800001c0:	7fee                	ld	t6,248(sp)
    800001c2:	6151                	addi	sp,sp,272
    800001c4:	30200073          	mret
    800001c8:	0001                	nop

Disassembly of section .text:

0000000080002000 <vvadd>:
    80002000:	00a05d63          	blez	a0,8000201a <vvadd+0x1a>
    80002004:	050a                	slli	a0,a0,0x2
    80002006:	952e                	add	a0,a0,a1
    80002008:	4198                	lw	a4,0(a1)
    8000200a:	421c                	lw	a5,0(a2)
    8000200c:	0591                	addi	a1,a1,4
    8000200e:	0611                	addi	a2,a2,4
    80002010:	9fb9                	addw	a5,a5,a4
    80002012:	c29c                	sw	a5,0(a3)
    80002014:	0691                	addi	a3,a3,4
    80002016:	fea599e3          	bne	a1,a0,80002008 <vvadd+0x8>
    8000201a:	8082                	ret

000000008000201c <vprintfmt>:
    8000201c:	710d                	addi	sp,sp,-352
    8000201e:	eaa2                	sd	s0,336(sp)
    80002020:	e6a6                	sd	s1,328(sp)
    80002022:	e2ca                	sd	s2,320(sp)
    80002024:	fa52                	sd	s4,304(sp)
    80002026:	f656                	sd	s5,296(sp)
    80002028:	f25a                	sd	s6,288(sp)
    8000202a:	ee5e                	sd	s7,280(sp)
    8000202c:	ee86                	sd	ra,344(sp)
    8000202e:	fe4e                	sd	s3,312(sp)
    80002030:	ea62                	sd	s8,272(sp)
    80002032:	e666                	sd	s9,264(sp)
    80002034:	e26a                	sd	s10,256(sp)
    80002036:	84aa                	mv	s1,a0
    80002038:	8432                	mv	s0,a2
    8000203a:	8bb6                	mv	s7,a3
    8000203c:	892e                	mv	s2,a1
    8000203e:	02500a13          	li	s4,37
    80002042:	05500b13          	li	s6,85
    80002046:	00001a97          	auipc	s5,0x1
    8000204a:	806a8a93          	addi	s5,s5,-2042 # 8000284c <main+0x116>
    8000204e:	a029                	j	80002058 <vprintfmt+0x3c>
    80002050:	cd1d                	beqz	a0,8000208e <vprintfmt+0x72>
    80002052:	85ca                	mv	a1,s2
    80002054:	0405                	addi	s0,s0,1
    80002056:	9482                	jalr	s1
    80002058:	00044503          	lbu	a0,0(s0)
    8000205c:	ff451ae3          	bne	a0,s4,80002050 <vprintfmt+0x34>
    80002060:	00144683          	lbu	a3,1(s0)
    80002064:	00140c13          	addi	s8,s0,1
    80002068:	59fd                	li	s3,-1
    8000206a:	8762                	mv	a4,s8
    8000206c:	8cce                	mv	s9,s3
    8000206e:	02000d13          	li	s10,32
    80002072:	4601                	li	a2,0
    80002074:	fdd6879b          	addiw	a5,a3,-35
    80002078:	0ff7f793          	zext.b	a5,a5
    8000207c:	00170413          	addi	s0,a4,1
    80002080:	04fb6163          	bltu	s6,a5,800020c2 <vprintfmt+0xa6>
    80002084:	078a                	slli	a5,a5,0x2
    80002086:	97d6                	add	a5,a5,s5
    80002088:	439c                	lw	a5,0(a5)
    8000208a:	97d6                	add	a5,a5,s5
    8000208c:	8782                	jr	a5
    8000208e:	60f6                	ld	ra,344(sp)
    80002090:	6456                	ld	s0,336(sp)
    80002092:	64b6                	ld	s1,328(sp)
    80002094:	6916                	ld	s2,320(sp)
    80002096:	79f2                	ld	s3,312(sp)
    80002098:	7a52                	ld	s4,304(sp)
    8000209a:	7ab2                	ld	s5,296(sp)
    8000209c:	7b12                	ld	s6,288(sp)
    8000209e:	6bf2                	ld	s7,280(sp)
    800020a0:	6c52                	ld	s8,272(sp)
    800020a2:	6cb2                	ld	s9,264(sp)
    800020a4:	6d12                	ld	s10,256(sp)
    800020a6:	6135                	addi	sp,sp,352
    800020a8:	8082                	ret
    800020aa:	8d36                	mv	s10,a3
    800020ac:	00174683          	lbu	a3,1(a4)
    800020b0:	8722                	mv	a4,s0
    800020b2:	00170413          	addi	s0,a4,1
    800020b6:	fdd6879b          	addiw	a5,a3,-35
    800020ba:	0ff7f793          	zext.b	a5,a5
    800020be:	fcfb73e3          	bgeu	s6,a5,80002084 <vprintfmt+0x68>
    800020c2:	85ca                	mv	a1,s2
    800020c4:	02500513          	li	a0,37
    800020c8:	9482                	jalr	s1
    800020ca:	8462                	mv	s0,s8
    800020cc:	b771                	j	80002058 <vprintfmt+0x3c>
    800020ce:	fd06899b          	addiw	s3,a3,-48
    800020d2:	00174683          	lbu	a3,1(a4)
    800020d6:	4825                	li	a6,9
    800020d8:	fd06879b          	addiw	a5,a3,-48
    800020dc:	1ef86a63          	bltu	a6,a5,800022d0 <vprintfmt+0x2b4>
    800020e0:	0006859b          	sext.w	a1,a3
    800020e4:	8722                	mv	a4,s0
    800020e6:	0029979b          	slliw	a5,s3,0x2
    800020ea:	00174683          	lbu	a3,1(a4)
    800020ee:	013787bb          	addw	a5,a5,s3
    800020f2:	0017979b          	slliw	a5,a5,0x1
    800020f6:	9fad                	addw	a5,a5,a1
    800020f8:	fd06851b          	addiw	a0,a3,-48
    800020fc:	0705                	addi	a4,a4,1
    800020fe:	fd07899b          	addiw	s3,a5,-48
    80002102:	0006859b          	sext.w	a1,a3
    80002106:	fea870e3          	bgeu	a6,a0,800020e6 <vprintfmt+0xca>
    8000210a:	f60cd5e3          	bgez	s9,80002074 <vprintfmt+0x58>
    8000210e:	8cce                	mv	s9,s3
    80002110:	59fd                	li	s3,-1
    80002112:	b78d                	j	80002074 <vprintfmt+0x58>
    80002114:	00174683          	lbu	a3,1(a4)
    80002118:	8722                	mv	a4,s0
    8000211a:	bfa9                	j	80002074 <vprintfmt+0x58>
    8000211c:	85ca                	mv	a1,s2
    8000211e:	02500513          	li	a0,37
    80002122:	9482                	jalr	s1
    80002124:	bf15                	j	80002058 <vprintfmt+0x3c>
    80002126:	00174683          	lbu	a3,1(a4)
    8000212a:	000ba983          	lw	s3,0(s7)
    8000212e:	8722                	mv	a4,s0
    80002130:	0ba1                	addi	s7,s7,8
    80002132:	bfe1                	j	8000210a <vprintfmt+0xee>
    80002134:	85ca                	mv	a1,s2
    80002136:	03000513          	li	a0,48
    8000213a:	9482                	jalr	s1
    8000213c:	85ca                	mv	a1,s2
    8000213e:	07800513          	li	a0,120
    80002142:	9482                	jalr	s1
    80002144:	008b8793          	addi	a5,s7,8
    80002148:	46c1                	li	a3,16
    8000214a:	000bb703          	ld	a4,0(s7)
    8000214e:	8bbe                	mv	s7,a5
    80002150:	02d775b3          	remu	a1,a4,a3
    80002154:	0050                	addi	a2,sp,4
    80002156:	4785                	li	a5,1
    80002158:	c02e                	sw	a1,0(sp)
    8000215a:	10d76463          	bltu	a4,a3,80002262 <vprintfmt+0x246>
    8000215e:	02d75733          	divu	a4,a4,a3
    80002162:	8c3e                	mv	s8,a5
    80002164:	0611                	addi	a2,a2,4
    80002166:	2785                	addiw	a5,a5,1
    80002168:	02d775b3          	remu	a1,a4,a3
    8000216c:	feb62e23          	sw	a1,-4(a2)
    80002170:	fed777e3          	bgeu	a4,a3,8000215e <vprintfmt+0x142>
    80002174:	0197dc63          	bge	a5,s9,8000218c <vprintfmt+0x170>
    80002178:	2d01                	sext.w	s10,s10
    8000217a:	3cfd                	addiw	s9,s9,-1
    8000217c:	fff7899b          	addiw	s3,a5,-1
    80002180:	85ca                	mv	a1,s2
    80002182:	856a                	mv	a0,s10
    80002184:	3cfd                	addiw	s9,s9,-1
    80002186:	9482                	jalr	s1
    80002188:	ff3c9ce3          	bne	s9,s3,80002180 <vprintfmt+0x164>
    8000218c:	0c0a                	slli	s8,s8,0x2
    8000218e:	018109b3          	add	s3,sp,s8
    80002192:	ffc10c93          	addi	s9,sp,-4
    80002196:	4c25                	li	s8,9
    80002198:	0009a783          	lw	a5,0(s3)
    8000219c:	03000513          	li	a0,48
    800021a0:	00fc7463          	bgeu	s8,a5,800021a8 <vprintfmt+0x18c>
    800021a4:	05700513          	li	a0,87
    800021a8:	9d3d                	addw	a0,a0,a5
    800021aa:	85ca                	mv	a1,s2
    800021ac:	19f1                	addi	s3,s3,-4
    800021ae:	9482                	jalr	s1
    800021b0:	ff9994e3          	bne	s3,s9,80002198 <vprintfmt+0x17c>
    800021b4:	b555                	j	80002058 <vprintfmt+0x3c>
    800021b6:	4785                	li	a5,1
    800021b8:	008b8c13          	addi	s8,s7,8
    800021bc:	00c7c363          	blt	a5,a2,800021c2 <vprintfmt+0x1a6>
    800021c0:	c25d                	beqz	a2,80002266 <vprintfmt+0x24a>
    800021c2:	000bb983          	ld	s3,0(s7)
    800021c6:	0a09c763          	bltz	s3,80002274 <vprintfmt+0x258>
    800021ca:	874e                	mv	a4,s3
    800021cc:	8be2                	mv	s7,s8
    800021ce:	46a9                	li	a3,10
    800021d0:	b741                	j	80002150 <vprintfmt+0x134>
    800021d2:	00174683          	lbu	a3,1(a4)
    800021d6:	2605                	addiw	a2,a2,1
    800021d8:	8722                	mv	a4,s0
    800021da:	bd69                	j	80002074 <vprintfmt+0x58>
    800021dc:	46c1                	li	a3,16
    800021de:	4705                	li	a4,1
    800021e0:	008b8793          	addi	a5,s7,8
    800021e4:	f6c743e3          	blt	a4,a2,8000214a <vprintfmt+0x12e>
    800021e8:	f22d                	bnez	a2,8000214a <vprintfmt+0x12e>
    800021ea:	000be703          	lwu	a4,0(s7)
    800021ee:	8bbe                	mv	s7,a5
    800021f0:	b785                	j	80002150 <vprintfmt+0x134>
    800021f2:	000bbc03          	ld	s8,0(s7)
    800021f6:	2d01                	sext.w	s10,s10
    800021f8:	fd3d0793          	addi	a5,s10,-45
    800021fc:	00f037b3          	snez	a5,a5
    80002200:	01902733          	sgtz	a4,s9
    80002204:	8f7d                	and	a4,a4,a5
    80002206:	0ba1                	addi	s7,s7,8
    80002208:	060c0f63          	beqz	s8,80002286 <vprintfmt+0x26a>
    8000220c:	e741                	bnez	a4,80002294 <vprintfmt+0x278>
    8000220e:	000c4503          	lbu	a0,0(s8)
    80002212:	cd11                	beqz	a0,8000222e <vprintfmt+0x212>
    80002214:	5d7d                	li	s10,-1
    80002216:	0009c563          	bltz	s3,80002220 <vprintfmt+0x204>
    8000221a:	39fd                	addiw	s3,s3,-1
    8000221c:	01a98963          	beq	s3,s10,8000222e <vprintfmt+0x212>
    80002220:	85ca                	mv	a1,s2
    80002222:	9482                	jalr	s1
    80002224:	001c4503          	lbu	a0,1(s8)
    80002228:	0c05                	addi	s8,s8,1
    8000222a:	3cfd                	addiw	s9,s9,-1
    8000222c:	f56d                	bnez	a0,80002216 <vprintfmt+0x1fa>
    8000222e:	e39055e3          	blez	s9,80002058 <vprintfmt+0x3c>
    80002232:	85ca                	mv	a1,s2
    80002234:	02000513          	li	a0,32
    80002238:	3cfd                	addiw	s9,s9,-1
    8000223a:	9482                	jalr	s1
    8000223c:	fe0c9be3          	bnez	s9,80002232 <vprintfmt+0x216>
    80002240:	bd21                	j	80002058 <vprintfmt+0x3c>
    80002242:	87e6                	mv	a5,s9
    80002244:	000cd363          	bgez	s9,8000224a <vprintfmt+0x22e>
    80002248:	4781                	li	a5,0
    8000224a:	00174683          	lbu	a3,1(a4)
    8000224e:	00078c9b          	sext.w	s9,a5
    80002252:	8722                	mv	a4,s0
    80002254:	b505                	j	80002074 <vprintfmt+0x58>
    80002256:	000ba503          	lw	a0,0(s7)
    8000225a:	85ca                	mv	a1,s2
    8000225c:	0ba1                	addi	s7,s7,8
    8000225e:	9482                	jalr	s1
    80002260:	bbe5                	j	80002058 <vprintfmt+0x3c>
    80002262:	4c01                	li	s8,0
    80002264:	bf01                	j	80002174 <vprintfmt+0x158>
    80002266:	000ba983          	lw	s3,0(s7)
    8000226a:	bfb1                	j	800021c6 <vprintfmt+0x1aa>
    8000226c:	46a9                	li	a3,10
    8000226e:	bf85                	j	800021de <vprintfmt+0x1c2>
    80002270:	46a1                	li	a3,8
    80002272:	b7b5                	j	800021de <vprintfmt+0x1c2>
    80002274:	85ca                	mv	a1,s2
    80002276:	02d00513          	li	a0,45
    8000227a:	9482                	jalr	s1
    8000227c:	41300733          	neg	a4,s3
    80002280:	8be2                	mv	s7,s8
    80002282:	46a9                	li	a3,10
    80002284:	b5f1                	j	80002150 <vprintfmt+0x134>
    80002286:	00000c17          	auipc	s8,0x0
    8000228a:	57ac0c13          	addi	s8,s8,1402 # 80002800 <main+0xca>
    8000228e:	02800513          	li	a0,40
    80002292:	d349                	beqz	a4,80002214 <vprintfmt+0x1f8>
    80002294:	87e2                	mv	a5,s8
    80002296:	013c06b3          	add	a3,s8,s3
    8000229a:	00099663          	bnez	s3,800022a6 <vprintfmt+0x28a>
    8000229e:	a829                	j	800022b8 <vprintfmt+0x29c>
    800022a0:	0785                	addi	a5,a5,1
    800022a2:	00d78563          	beq	a5,a3,800022ac <vprintfmt+0x290>
    800022a6:	0007c703          	lbu	a4,0(a5)
    800022aa:	fb7d                	bnez	a4,800022a0 <vprintfmt+0x284>
    800022ac:	418787b3          	sub	a5,a5,s8
    800022b0:	40fc8cbb          	subw	s9,s9,a5
    800022b4:	01905863          	blez	s9,800022c4 <vprintfmt+0x2a8>
    800022b8:	85ca                	mv	a1,s2
    800022ba:	856a                	mv	a0,s10
    800022bc:	3cfd                	addiw	s9,s9,-1
    800022be:	9482                	jalr	s1
    800022c0:	fe0c9ce3          	bnez	s9,800022b8 <vprintfmt+0x29c>
    800022c4:	000c4503          	lbu	a0,0(s8)
    800022c8:	d80508e3          	beqz	a0,80002058 <vprintfmt+0x3c>
    800022cc:	5d7d                	li	s10,-1
    800022ce:	b7a1                	j	80002216 <vprintfmt+0x1fa>
    800022d0:	8722                	mv	a4,s0
    800022d2:	bd25                	j	8000210a <vprintfmt+0xee>

00000000800022d4 <sprintf_putch.0>:
    800022d4:	619c                	ld	a5,0(a1)
    800022d6:	00a78023          	sb	a0,0(a5)
    800022da:	619c                	ld	a5,0(a1)
    800022dc:	0785                	addi	a5,a5,1
    800022de:	e19c                	sd	a5,0(a1)
    800022e0:	8082                	ret

00000000800022e2 <putchar>:
    800022e2:	04022783          	lw	a5,64(tp) # 40 <buflen.1>
    800022e6:	00020713          	mv	a4,tp
    800022ea:	7159                	addi	sp,sp,-112
    800022ec:	973e                	add	a4,a4,a5
    800022ee:	2785                	addiw	a5,a5,1
    800022f0:	00a70023          	sb	a0,0(a4)
    800022f4:	04f22023          	sw	a5,64(tp) # 40 <buflen.1>
    800022f8:	03f10713          	addi	a4,sp,63
    800022fc:	fc078593          	addi	a1,a5,-64
    80002300:	fc077713          	andi	a4,a4,-64
    80002304:	c591                	beqz	a1,80002310 <putchar+0x2e>
    80002306:	1559                	addi	a0,a0,-10
    80002308:	c501                	beqz	a0,80002310 <putchar+0x2e>
    8000230a:	4501                	li	a0,0
    8000230c:	6165                	addi	sp,sp,112
    8000230e:	8082                	ret
    80002310:	04000593          	li	a1,64
    80002314:	e30c                	sd	a1,0(a4)
    80002316:	4585                	li	a1,1
    80002318:	e70c                	sd	a1,8(a4)
    8000231a:	00020693          	mv	a3,tp
    8000231e:	eb14                	sd	a3,16(a4)
    80002320:	ef1c                	sd	a5,24(a4)
    80002322:	0330000f          	fence	rw,rw
    80002326:	fffff697          	auipc	a3,0xfffff
    8000232a:	d1a68693          	addi	a3,a3,-742 # 80001040 <fromhost>
    8000232e:	fffff797          	auipc	a5,0xfffff
    80002332:	cce7b923          	sd	a4,-814(a5) # 80001000 <tohost>
    80002336:	629c                	ld	a5,0(a3)
    80002338:	dffd                	beqz	a5,80002336 <putchar+0x54>
    8000233a:	fffff797          	auipc	a5,0xfffff
    8000233e:	d007b323          	sd	zero,-762(a5) # 80001040 <fromhost>
    80002342:	0330000f          	fence	rw,rw
    80002346:	04022023          	sw	zero,64(tp) # 40 <buflen.1>
    8000234a:	631c                	ld	a5,0(a4)
    8000234c:	4501                	li	a0,0
    8000234e:	6165                	addi	sp,sp,112
    80002350:	8082                	ret

0000000080002352 <setStats>:
    80002352:	b0002773          	csrr	a4,mcycle
    80002356:	00001797          	auipc	a5,0x1
    8000235a:	46278793          	addi	a5,a5,1122 # 800037b8 <counters>
    8000235e:	c511                	beqz	a0,8000236a <setStats+0x18>
    80002360:	e398                	sd	a4,0(a5)
    80002362:	b0202773          	csrr	a4,minstret
    80002366:	e798                	sd	a4,8(a5)
    80002368:	8082                	ret
    8000236a:	6394                	ld	a3,0(a5)
    8000236c:	00000617          	auipc	a2,0x0
    80002370:	4a460613          	addi	a2,a2,1188 # 80002810 <main+0xda>
    80002374:	eb90                	sd	a2,16(a5)
    80002376:	8f15                	sub	a4,a4,a3
    80002378:	e398                	sd	a4,0(a5)
    8000237a:	b0202773          	csrr	a4,minstret
    8000237e:	6794                	ld	a3,8(a5)
    80002380:	00000617          	auipc	a2,0x0
    80002384:	49860613          	addi	a2,a2,1176 # 80002818 <main+0xe2>
    80002388:	ef90                	sd	a2,24(a5)
    8000238a:	8f15                	sub	a4,a4,a3
    8000238c:	e798                	sd	a4,8(a5)
    8000238e:	8082                	ret

0000000080002390 <tohost_exit>:
    80002390:	00151793          	slli	a5,a0,0x1
    80002394:	0017e793          	ori	a5,a5,1
    80002398:	fffff717          	auipc	a4,0xfffff
    8000239c:	c6f73423          	sd	a5,-920(a4) # 80001000 <tohost>
    800023a0:	a001                	j	800023a0 <tohost_exit+0x10>

00000000800023a2 <handle_trap>:
    800023a2:	6785                	lui	a5,0x1
    800023a4:	a7378793          	addi	a5,a5,-1421 # a73 <buflen.1+0xa33>
    800023a8:	fffff717          	auipc	a4,0xfffff
    800023ac:	c4f73c23          	sd	a5,-936(a4) # 80001000 <tohost>
    800023b0:	a001                	j	800023b0 <handle_trap+0xe>

00000000800023b2 <exit>:
    800023b2:	1141                	addi	sp,sp,-16
    800023b4:	e406                	sd	ra,8(sp)
    800023b6:	fdbff0ef          	jal	80002390 <tohost_exit>

00000000800023ba <abort>:
    800023ba:	10d00793          	li	a5,269
    800023be:	fffff717          	auipc	a4,0xfffff
    800023c2:	c4f73123          	sd	a5,-958(a4) # 80001000 <tohost>
    800023c6:	a001                	j	800023c6 <abort+0xc>

00000000800023c8 <printstr>:
    800023c8:	00054783          	lbu	a5,0(a0)
    800023cc:	7159                	addi	sp,sp,-112
    800023ce:	03f10693          	addi	a3,sp,63
    800023d2:	fc06f693          	andi	a3,a3,-64
    800023d6:	c799                	beqz	a5,800023e4 <printstr+0x1c>
    800023d8:	87aa                	mv	a5,a0
    800023da:	0017c703          	lbu	a4,1(a5)
    800023de:	0785                	addi	a5,a5,1
    800023e0:	ff6d                	bnez	a4,800023da <printstr+0x12>
    800023e2:	8f89                	sub	a5,a5,a0
    800023e4:	04000713          	li	a4,64
    800023e8:	e298                	sd	a4,0(a3)
    800023ea:	4705                	li	a4,1
    800023ec:	e698                	sd	a4,8(a3)
    800023ee:	ea88                	sd	a0,16(a3)
    800023f0:	ee9c                	sd	a5,24(a3)
    800023f2:	0330000f          	fence	rw,rw
    800023f6:	fffff717          	auipc	a4,0xfffff
    800023fa:	c4a70713          	addi	a4,a4,-950 # 80001040 <fromhost>
    800023fe:	fffff797          	auipc	a5,0xfffff
    80002402:	c0d7b123          	sd	a3,-1022(a5) # 80001000 <tohost>
    80002406:	631c                	ld	a5,0(a4)
    80002408:	dffd                	beqz	a5,80002406 <printstr+0x3e>
    8000240a:	fffff797          	auipc	a5,0xfffff
    8000240e:	c207bb23          	sd	zero,-970(a5) # 80001040 <fromhost>
    80002412:	0330000f          	fence	rw,rw
    80002416:	629c                	ld	a5,0(a3)
    80002418:	6165                	addi	sp,sp,112
    8000241a:	8082                	ret

000000008000241c <thread_entry>:
    8000241c:	e111                	bnez	a0,80002420 <thread_entry+0x4>
    8000241e:	8082                	ret
    80002420:	a001                	j	80002420 <thread_entry+0x4>

0000000080002422 <printhex>:
    80002422:	7179                	addi	sp,sp,-48
    80002424:	86aa                	mv	a3,a0
    80002426:	f406                	sd	ra,40(sp)
    80002428:	0028                	addi	a0,sp,8
    8000242a:	01710713          	addi	a4,sp,23
    8000242e:	45a5                	li	a1,9
    80002430:	a011                	j	80002434 <printhex+0x12>
    80002432:	177d                	addi	a4,a4,-1
    80002434:	00f6f793          	andi	a5,a3,15
    80002438:	03000613          	li	a2,48
    8000243c:	00f5f463          	bgeu	a1,a5,80002444 <printhex+0x22>
    80002440:	05700613          	li	a2,87
    80002444:	9fb1                	addw	a5,a5,a2
    80002446:	00f70023          	sb	a5,0(a4)
    8000244a:	8291                	srli	a3,a3,0x4
    8000244c:	fee513e3          	bne	a0,a4,80002432 <printhex+0x10>
    80002450:	00010c23          	sb	zero,24(sp)
    80002454:	f75ff0ef          	jal	800023c8 <printstr>
    80002458:	70a2                	ld	ra,40(sp)
    8000245a:	6145                	addi	sp,sp,48
    8000245c:	8082                	ret

000000008000245e <printf>:
    8000245e:	711d                	addi	sp,sp,-96
    80002460:	02810313          	addi	t1,sp,40
    80002464:	f42e                	sd	a1,40(sp)
    80002466:	f832                	sd	a2,48(sp)
    80002468:	fc36                	sd	a3,56(sp)
    8000246a:	862a                	mv	a2,a0
    8000246c:	869a                	mv	a3,t1
    8000246e:	00000517          	auipc	a0,0x0
    80002472:	e7450513          	addi	a0,a0,-396 # 800022e2 <putchar>
    80002476:	4581                	li	a1,0
    80002478:	ec06                	sd	ra,24(sp)
    8000247a:	e0ba                	sd	a4,64(sp)
    8000247c:	e4be                	sd	a5,72(sp)
    8000247e:	e8c2                	sd	a6,80(sp)
    80002480:	ecc6                	sd	a7,88(sp)
    80002482:	e41a                	sd	t1,8(sp)
    80002484:	b99ff0ef          	jal	8000201c <vprintfmt>
    80002488:	60e2                	ld	ra,24(sp)
    8000248a:	4501                	li	a0,0
    8000248c:	6125                	addi	sp,sp,96
    8000248e:	8082                	ret

0000000080002490 <sprintf>:
    80002490:	711d                	addi	sp,sp,-96
    80002492:	03010313          	addi	t1,sp,48
    80002496:	f022                	sd	s0,32(sp)
    80002498:	e42a                	sd	a0,8(sp)
    8000249a:	f832                	sd	a2,48(sp)
    8000249c:	fc36                	sd	a3,56(sp)
    8000249e:	842a                	mv	s0,a0
    800024a0:	862e                	mv	a2,a1
    800024a2:	00000517          	auipc	a0,0x0
    800024a6:	e3250513          	addi	a0,a0,-462 # 800022d4 <sprintf_putch.0>
    800024aa:	002c                	addi	a1,sp,8
    800024ac:	869a                	mv	a3,t1
    800024ae:	f406                	sd	ra,40(sp)
    800024b0:	e4be                	sd	a5,72(sp)
    800024b2:	e0ba                	sd	a4,64(sp)
    800024b4:	e8c2                	sd	a6,80(sp)
    800024b6:	ecc6                	sd	a7,88(sp)
    800024b8:	ec1a                	sd	t1,24(sp)
    800024ba:	b63ff0ef          	jal	8000201c <vprintfmt>
    800024be:	67a2                	ld	a5,8(sp)
    800024c0:	00078023          	sb	zero,0(a5)
    800024c4:	6522                	ld	a0,8(sp)
    800024c6:	70a2                	ld	ra,40(sp)
    800024c8:	9d01                	subw	a0,a0,s0
    800024ca:	7402                	ld	s0,32(sp)
    800024cc:	6125                	addi	sp,sp,96
    800024ce:	8082                	ret

00000000800024d0 <memcpy>:
    800024d0:	00c5e7b3          	or	a5,a1,a2
    800024d4:	8fc9                	or	a5,a5,a0
    800024d6:	8b9d                	andi	a5,a5,7
    800024d8:	83ae                	mv	t2,a1
    800024da:	00c506b3          	add	a3,a0,a2
    800024de:	cf91                	beqz	a5,800024fa <memcpy+0x2a>
    800024e0:	962e                	add	a2,a2,a1
    800024e2:	87aa                	mv	a5,a0
    800024e4:	08d57a63          	bgeu	a0,a3,80002578 <memcpy+0xa8>
    800024e8:	0005c703          	lbu	a4,0(a1)
    800024ec:	0585                	addi	a1,a1,1
    800024ee:	0785                	addi	a5,a5,1
    800024f0:	fee78fa3          	sb	a4,-1(a5)
    800024f4:	fec59ae3          	bne	a1,a2,800024e8 <memcpy+0x18>
    800024f8:	8082                	ret
    800024fa:	04050713          	addi	a4,a0,64
    800024fe:	06d77e63          	bgeu	a4,a3,8000257a <memcpy+0xaa>
    80002502:	87ba                	mv	a5,a4
    80002504:	0005b283          	ld	t0,0(a1)
    80002508:	0085bf83          	ld	t6,8(a1)
    8000250c:	0105bf03          	ld	t5,16(a1)
    80002510:	0185be83          	ld	t4,24(a1)
    80002514:	0205be03          	ld	t3,32(a1)
    80002518:	0285b303          	ld	t1,40(a1)
    8000251c:	0305b883          	ld	a7,48(a1)
    80002520:	0385b803          	ld	a6,56(a1)
    80002524:	04078793          	addi	a5,a5,64
    80002528:	f857b023          	sd	t0,-128(a5)
    8000252c:	f9f7b423          	sd	t6,-120(a5)
    80002530:	f9e7b823          	sd	t5,-112(a5)
    80002534:	f9d7bc23          	sd	t4,-104(a5)
    80002538:	fbc7b023          	sd	t3,-96(a5)
    8000253c:	fa67b423          	sd	t1,-88(a5)
    80002540:	fb17b823          	sd	a7,-80(a5)
    80002544:	fb07bc23          	sd	a6,-72(a5)
    80002548:	04058593          	addi	a1,a1,64
    8000254c:	fad7ece3          	bltu	a5,a3,80002504 <memcpy+0x34>
    80002550:	fbf60613          	addi	a2,a2,-65
    80002554:	fc067613          	andi	a2,a2,-64
    80002558:	04038393          	addi	t2,t2,64
    8000255c:	00c707b3          	add	a5,a4,a2
    80002560:	00c385b3          	add	a1,t2,a2
    80002564:	f8d7fae3          	bgeu	a5,a3,800024f8 <memcpy+0x28>
    80002568:	6198                	ld	a4,0(a1)
    8000256a:	07a1                	addi	a5,a5,8
    8000256c:	05a1                	addi	a1,a1,8
    8000256e:	fee7bc23          	sd	a4,-8(a5)
    80002572:	fed7ebe3          	bltu	a5,a3,80002568 <memcpy+0x98>
    80002576:	8082                	ret
    80002578:	8082                	ret
    8000257a:	87aa                	mv	a5,a0
    8000257c:	b7e5                	j	80002564 <memcpy+0x94>

000000008000257e <memset>:
    8000257e:	00c567b3          	or	a5,a0,a2
    80002582:	8b9d                	andi	a5,a5,7
    80002584:	962a                	add	a2,a2,a0
    80002586:	cb91                	beqz	a5,8000259a <memset+0x1c>
    80002588:	87aa                	mv	a5,a0
    8000258a:	02c57c63          	bgeu	a0,a2,800025c2 <memset+0x44>
    8000258e:	0785                	addi	a5,a5,1
    80002590:	feb78fa3          	sb	a1,-1(a5)
    80002594:	fef61de3          	bne	a2,a5,8000258e <memset+0x10>
    80002598:	8082                	ret
    8000259a:	fec57fe3          	bgeu	a0,a2,80002598 <memset+0x1a>
    8000259e:	010107b7          	lui	a5,0x1010
    800025a2:	10178793          	addi	a5,a5,257 # 1010101 <buflen.1+0x10100c1>
    800025a6:	02079713          	slli	a4,a5,0x20
    800025aa:	973e                	add	a4,a4,a5
    800025ac:	0ff5f593          	zext.b	a1,a1
    800025b0:	02e585b3          	mul	a1,a1,a4
    800025b4:	87aa                	mv	a5,a0
    800025b6:	07a1                	addi	a5,a5,8
    800025b8:	feb7bc23          	sd	a1,-8(a5)
    800025bc:	fec7ede3          	bltu	a5,a2,800025b6 <memset+0x38>
    800025c0:	8082                	ret
    800025c2:	8082                	ret

00000000800025c4 <_init>:
    800025c4:	7171                	addi	sp,sp,-176
    800025c6:	00001797          	auipc	a5,0x1
    800025ca:	21278793          	addi	a5,a5,530 # 800037d8 <_tdata_begin>
    800025ce:	f122                	sd	s0,160(sp)
    800025d0:	00001417          	auipc	s0,0x1
    800025d4:	20840413          	addi	s0,s0,520 # 800037d8 <_tdata_begin>
    800025d8:	ed26                	sd	s1,152(sp)
    800025da:	40f404b3          	sub	s1,s0,a5
    800025de:	8626                	mv	a2,s1
    800025e0:	e54e                	sd	s3,136(sp)
    800025e2:	e152                	sd	s4,128(sp)
    800025e4:	89aa                	mv	s3,a0
    800025e6:	8a2e                	mv	s4,a1
    800025e8:	8512                	mv	a0,tp
    800025ea:	85be                	mv	a1,a5
    800025ec:	f506                	sd	ra,168(sp)
    800025ee:	e94a                	sd	s2,144(sp)
    800025f0:	fcd6                	sd	s5,120(sp)
    800025f2:	8a92                	mv	s5,tp
    800025f4:	eddff0ef          	jal	800024d0 <memcpy>
    800025f8:	00001617          	auipc	a2,0x1
    800025fc:	24c60613          	addi	a2,a2,588 # 80003844 <_tbss_end>
    80002600:	8e01                	sub	a2,a2,s0
    80002602:	009a8533          	add	a0,s5,s1
    80002606:	4581                	li	a1,0
    80002608:	f77ff0ef          	jal	8000257e <memset>
    8000260c:	85d2                	mv	a1,s4
    8000260e:	854e                	mv	a0,s3
    80002610:	e0dff0ef          	jal	8000241c <thread_entry>
    80002614:	03f10913          	addi	s2,sp,63
    80002618:	4581                	li	a1,0
    8000261a:	4501                	li	a0,0
    8000261c:	fc097913          	andi	s2,s2,-64
    80002620:	116000ef          	jal	80002736 <main>
    80002624:	00001497          	auipc	s1,0x1
    80002628:	1a448493          	addi	s1,s1,420 # 800037c8 <counter_names>
    8000262c:	8aaa                	mv	s5,a0
    8000262e:	89ca                	mv	s3,s2
    80002630:	8a26                	mv	s4,s1
    80002632:	00001417          	auipc	s0,0x1
    80002636:	18640413          	addi	s0,s0,390 # 800037b8 <counters>
    8000263a:	6014                	ld	a3,0(s0)
    8000263c:	ee89                	bnez	a3,80002656 <_init+0x92>
    8000263e:	0421                	addi	s0,s0,8
    80002640:	04a1                	addi	s1,s1,8
    80002642:	ff441ce3          	bne	s0,s4,8000263a <_init+0x76>
    80002646:	01390563          	beq	s2,s3,80002650 <_init+0x8c>
    8000264a:	854a                	mv	a0,s2
    8000264c:	d7dff0ef          	jal	800023c8 <printstr>
    80002650:	8556                	mv	a0,s5
    80002652:	d3fff0ef          	jal	80002390 <tohost_exit>
    80002656:	6090                	ld	a2,0(s1)
    80002658:	854e                	mv	a0,s3
    8000265a:	00000597          	auipc	a1,0x0
    8000265e:	1e658593          	addi	a1,a1,486 # 80002840 <main+0x10a>
    80002662:	e2fff0ef          	jal	80002490 <sprintf>
    80002666:	99aa                	add	s3,s3,a0
    80002668:	bfd9                	j	8000263e <_init+0x7a>

000000008000266a <strlen>:
    8000266a:	00054783          	lbu	a5,0(a0)
    8000266e:	cb89                	beqz	a5,80002680 <strlen+0x16>
    80002670:	87aa                	mv	a5,a0
    80002672:	0017c703          	lbu	a4,1(a5)
    80002676:	0785                	addi	a5,a5,1
    80002678:	ff6d                	bnez	a4,80002672 <strlen+0x8>
    8000267a:	40a78533          	sub	a0,a5,a0
    8000267e:	8082                	ret
    80002680:	4501                	li	a0,0
    80002682:	8082                	ret

0000000080002684 <strnlen>:
    80002684:	00b506b3          	add	a3,a0,a1
    80002688:	87aa                	mv	a5,a0
    8000268a:	e589                	bnez	a1,80002694 <strnlen+0x10>
    8000268c:	a811                	j	800026a0 <strnlen+0x1c>
    8000268e:	0785                	addi	a5,a5,1
    80002690:	00d78563          	beq	a5,a3,8000269a <strnlen+0x16>
    80002694:	0007c703          	lbu	a4,0(a5)
    80002698:	fb7d                	bnez	a4,8000268e <strnlen+0xa>
    8000269a:	40a78533          	sub	a0,a5,a0
    8000269e:	8082                	ret
    800026a0:	4501                	li	a0,0
    800026a2:	8082                	ret

00000000800026a4 <strcmp>:
    800026a4:	00054783          	lbu	a5,0(a0)
    800026a8:	0505                	addi	a0,a0,1
    800026aa:	0585                	addi	a1,a1,1
    800026ac:	0007869b          	sext.w	a3,a5
    800026b0:	fff5c703          	lbu	a4,-1(a1)
    800026b4:	c399                	beqz	a5,800026ba <strcmp+0x16>
    800026b6:	fee687e3          	beq	a3,a4,800026a4 <strcmp>
    800026ba:	40e7853b          	subw	a0,a5,a4
    800026be:	8082                	ret

00000000800026c0 <strcpy>:
    800026c0:	87aa                	mv	a5,a0
    800026c2:	0005c703          	lbu	a4,0(a1)
    800026c6:	0585                	addi	a1,a1,1
    800026c8:	0785                	addi	a5,a5,1
    800026ca:	fee78fa3          	sb	a4,-1(a5)
    800026ce:	fb75                	bnez	a4,800026c2 <strcpy+0x2>
    800026d0:	8082                	ret

00000000800026d2 <atol>:
    800026d2:	00054703          	lbu	a4,0(a0)
    800026d6:	02000693          	li	a3,32
    800026da:	87aa                	mv	a5,a0
    800026dc:	00d71763          	bne	a4,a3,800026ea <atol+0x18>
    800026e0:	0017c703          	lbu	a4,1(a5)
    800026e4:	0785                	addi	a5,a5,1
    800026e6:	fed70de3          	beq	a4,a3,800026e0 <atol+0xe>
    800026ea:	fd57069b          	addiw	a3,a4,-43
    800026ee:	0fd6f693          	andi	a3,a3,253
    800026f2:	ea95                	bnez	a3,80002726 <atol+0x54>
    800026f4:	0017c683          	lbu	a3,1(a5)
    800026f8:	fd370713          	addi	a4,a4,-45
    800026fc:	00173613          	seqz	a2,a4
    80002700:	ca8d                	beqz	a3,80002732 <atol+0x60>
    80002702:	0785                	addi	a5,a5,1
    80002704:	4501                	li	a0,0
    80002706:	0785                	addi	a5,a5,1
    80002708:	fd06859b          	addiw	a1,a3,-48
    8000270c:	00251713          	slli	a4,a0,0x2
    80002710:	0007c683          	lbu	a3,0(a5)
    80002714:	972a                	add	a4,a4,a0
    80002716:	0706                	slli	a4,a4,0x1
    80002718:	00e58533          	add	a0,a1,a4
    8000271c:	f6ed                	bnez	a3,80002706 <atol+0x34>
    8000271e:	c219                	beqz	a2,80002724 <atol+0x52>
    80002720:	40a00533          	neg	a0,a0
    80002724:	8082                	ret
    80002726:	0007c683          	lbu	a3,0(a5)
    8000272a:	4601                	li	a2,0
    8000272c:	fee1                	bnez	a3,80002704 <atol+0x32>
    8000272e:	4501                	li	a0,0
    80002730:	8082                	ret
    80002732:	4501                	li	a0,0
    80002734:	b7ed                	j	8000271e <atol+0x4c>

Disassembly of section .text.startup:

0000000080002736 <main>:
    80002736:	b2010113          	addi	sp,sp,-1248
    8000273a:	4c913423          	sd	s1,1224(sp)
    8000273e:	4d213023          	sd	s2,1216(sp)
    80002742:	00000497          	auipc	s1,0x0
    80002746:	26648493          	addi	s1,s1,614 # 800029a8 <input1_data>
    8000274a:	00000917          	auipc	s2,0x0
    8000274e:	70e90913          	addi	s2,s2,1806 # 80002e58 <input2_data>
    80002752:	4c813823          	sd	s0,1232(sp)
    80002756:	4b313c23          	sd	s3,1208(sp)
    8000275a:	4c113c23          	sd	ra,1240(sp)
    8000275e:	840a                	mv	s0,sp
    80002760:	87a6                	mv	a5,s1
    80002762:	89ca                	mv	s3,s2
    80002764:	864a                	mv	a2,s2
    80002766:	868a                	mv	a3,sp
    80002768:	438c                	lw	a1,0(a5)
    8000276a:	4218                	lw	a4,0(a2)
    8000276c:	0791                	addi	a5,a5,4
    8000276e:	0611                	addi	a2,a2,4
    80002770:	9f2d                	addw	a4,a4,a1
    80002772:	c298                	sw	a4,0(a3)
    80002774:	0691                	addi	a3,a3,4
    80002776:	ff3799e3          	bne	a5,s3,80002768 <main+0x32>
    8000277a:	4505                	li	a0,1
    8000277c:	bd7ff0ef          	jal	80002352 <setStats>
    80002780:	8722                	mv	a4,s0
    80002782:	4094                	lw	a3,0(s1)
    80002784:	00092783          	lw	a5,0(s2)
    80002788:	0491                	addi	s1,s1,4
    8000278a:	0911                	addi	s2,s2,4
    8000278c:	9fb5                	addw	a5,a5,a3
    8000278e:	c31c                	sw	a5,0(a4)
    80002790:	0711                	addi	a4,a4,4
    80002792:	ff3498e3          	bne	s1,s3,80002782 <main+0x4c>
    80002796:	4501                	li	a0,0
    80002798:	bbbff0ef          	jal	80002352 <setStats>
    8000279c:	00001797          	auipc	a5,0x1
    800027a0:	b6c78793          	addi	a5,a5,-1172 # 80003308 <verify_data>
    800027a4:	4501                	li	a0,0
    800027a6:	12c00593          	li	a1,300
    800027aa:	4014                	lw	a3,0(s0)
    800027ac:	4390                	lw	a2,0(a5)
    800027ae:	4058                	lw	a4,4(s0)
    800027b0:	0421                	addi	s0,s0,8
    800027b2:	2701                	sext.w	a4,a4
    800027b4:	02d61763          	bne	a2,a3,800027e2 <main+0xac>
    800027b8:	43d4                	lw	a3,4(a5)
    800027ba:	2509                	addiw	a0,a0,2
    800027bc:	07a1                	addi	a5,a5,8
    800027be:	00e69563          	bne	a3,a4,800027c8 <main+0x92>
    800027c2:	feb514e3          	bne	a0,a1,800027aa <main+0x74>
    800027c6:	4501                	li	a0,0
    800027c8:	4d813083          	ld	ra,1240(sp)
    800027cc:	4d013403          	ld	s0,1232(sp)
    800027d0:	4c813483          	ld	s1,1224(sp)
    800027d4:	4c013903          	ld	s2,1216(sp)
    800027d8:	4b813983          	ld	s3,1208(sp)
    800027dc:	4e010113          	addi	sp,sp,1248
    800027e0:	8082                	ret
    800027e2:	2505                	addiw	a0,a0,1
    800027e4:	b7d5                	j	800027c8 <main+0x92>
    800027e6:	1141                	addi	sp,sp,-16
    800027e8:	00000517          	auipc	a0,0x0
    800027ec:	04050513          	addi	a0,a0,64 # 80002828 <main+0xf2>
    800027f0:	e406                	sd	ra,8(sp)
    800027f2:	bd7ff0ef          	jal	800023c8 <printstr>
    800027f6:	60a2                	ld	ra,8(sp)
    800027f8:	557d                	li	a0,-1
    800027fa:	0141                	addi	sp,sp,16
    800027fc:	8082                	ret

Disassembly of section .data:

00000000800029a8 <input1_data>:
    800029a8:	0029                	c.nop	10
    800029aa:	0000                	unimp
    800029ac:	0341                	addi	t1,t1,16
    800029ae:	0000                	unimp
    800029b0:	0234                	addi	a3,sp,264
    800029b2:	0000                	unimp
    800029b4:	000000bb          	addw	ra,zero,zero
    800029b8:	02ed                	addi	t0,t0,27
    800029ba:	0000                	unimp
    800029bc:	015e                	slli	sp,sp,0x17
    800029be:	0000                	unimp
    800029c0:	0084                	addi	s1,sp,64
    800029c2:	0000                	unimp
    800029c4:	03b5                	addi	t2,t2,13
    800029c6:	0000                	unimp
    800029c8:	0248                	addi	a0,sp,260
    800029ca:	0000                	unimp
    800029cc:	0325                	addi	t1,t1,9
    800029ce:	0000                	unimp
    800029d0:	026d                	addi	tp,tp,27 # 1b <buf.2+0x1b>
    800029d2:	0000                	unimp
    800029d4:	0006                	c.slli	zero,0x1
    800029d6:	0000                	unimp
    800029d8:	000003a3          	sb	zero,7(zero) # 7 <buf.2+0x7>
    800029dc:	037a                	slli	t1,t1,0x1e
    800029de:	0000                	unimp
    800029e0:	0188                	addi	a0,sp,192
    800029e2:	0000                	unimp
    800029e4:	02b6                	slli	t0,t0,0xd
    800029e6:	0000                	unimp
    800029e8:	03c1                	addi	t2,t2,16
    800029ea:	0000                	unimp
    800029ec:	006e                	c.slli	zero,0x1b
    800029ee:	0000                	unimp
    800029f0:	0074                	addi	a3,sp,12
    800029f2:	0000                	unimp
    800029f4:	0128                	addi	a0,sp,136
    800029f6:	0000                	unimp
    800029f8:	01aa                	slli	gp,gp,0xa
    800029fa:	0000                	unimp
    800029fc:	013a                	slli	sp,sp,0xe
    800029fe:	0000                	unimp
    80002a00:	00000293          	li	t0,0
    80002a04:	0306                	slli	t1,t1,0x1
    80002a06:	0000                	unimp
    80002a08:	0000013f 000002a6 	.insn	8, 0x02a60000013f
    80002a10:	0000036b          	.insn	4, 0x036b
    80002a14:	0178                	addi	a4,sp,140
    80002a16:	0000                	unimp
    80002a18:	01da                	slli	gp,gp,0x16
    80002a1a:	0000                	unimp
    80002a1c:	03aa                	slli	t2,t2,0xa
    80002a1e:	0000                	unimp
    80002a20:	0000021b          	sext.w	tp,zero
    80002a24:	0239                	addi	tp,tp,14 # e <buf.2+0xe>
    80002a26:	0000                	unimp
    80002a28:	000000cb          	fnmsub.s	ft1,ft0,ft0,ft0,rne
    80002a2c:	0118                	addi	a4,sp,128
    80002a2e:	0000                	unimp
    80002a30:	000002f7          	.insn	4, 0x02f7
    80002a34:	025e                	slli	tp,tp,0x17
    80002a36:	0000                	unimp
    80002a38:	01ff 0000 0291 0000 	.insn	10, 0x00c300000291000001ff
    80002a40:	00c3 
    80002a42:	0000                	unimp
    80002a44:	0051                	c.nop	20
    80002a46:	0000                	unimp
    80002a48:	0000010b          	.insn	4, 0x010b
    80002a4c:	00e5                	addi	ra,ra,25
    80002a4e:	0000                	unimp
    80002a50:	0151                	addi	sp,sp,20
    80002a52:	0000                	unimp
    80002a54:	03b0                	addi	a2,sp,456
    80002a56:	0000                	unimp
    80002a58:	0386                	slli	t2,t2,0x1
    80002a5a:	0000                	unimp
    80002a5c:	00f1                	addi	ra,ra,28
    80002a5e:	0000                	unimp
    80002a60:	0391                	addi	t2,t2,4
    80002a62:	0000                	unimp
    80002a64:	033a                	slli	t1,t1,0xe
    80002a66:	0000                	unimp
    80002a68:	03a5                	addi	t2,t2,9
    80002a6a:	0000                	unimp
    80002a6c:	03d9                	addi	t2,t2,22
    80002a6e:	0000                	unimp
    80002a70:	000000c3          	fmadd.s	ft1,ft0,ft0,ft0,rne
    80002a74:	03c0                	addi	s0,sp,452
    80002a76:	0000                	unimp
    80002a78:	0236                	slli	tp,tp,0xd
    80002a7a:	0000                	unimp
    80002a7c:	015e                	slli	sp,sp,0x17
    80002a7e:	0000                	unimp
    80002a80:	0289                	addi	t0,t0,2
    80002a82:	0000                	unimp
    80002a84:	0291                	addi	t0,t0,4
    80002a86:	0000                	unimp
    80002a88:	00b5                	addi	ra,ra,13
    80002a8a:	0000                	unimp
    80002a8c:	0000006f          	j	80002a8c <input1_data+0xe4>
    80002a90:	0000035b          	.insn	4, 0x035b
    80002a94:	0041                	c.nop	16
    80002a96:	0000                	unimp
    80002a98:	0120                	addi	s0,sp,136
    80002a9a:	0000                	unimp
    80002a9c:	015d                	addi	sp,sp,23
    80002a9e:	0000                	unimp
    80002aa0:	008d                	addi	ra,ra,3
    80002aa2:	0000                	unimp
    80002aa4:	0389                	addi	t2,t2,2
    80002aa6:	0000                	unimp
    80002aa8:	0376                	slli	t1,t1,0x1d
    80002aaa:	0000                	unimp
    80002aac:	0108                	addi	a0,sp,128
    80002aae:	0000                	unimp
    80002ab0:	0240                	addi	s0,sp,260
    80002ab2:	0000                	unimp
    80002ab4:	000003d3          	fadd.s	ft7,ft0,ft0,rne
    80002ab8:	02f9                	addi	t0,t0,30
    80002aba:	0000                	unimp
    80002abc:	00f1                	addi	ra,ra,28
    80002abe:	0000                	unimp
    80002ac0:	01de                	slli	gp,gp,0x17
    80002ac2:	0000                	unimp
    80002ac4:	000001f3          	.insn	4, 0x01f3
    80002ac8:	00000193          	li	gp,0
    80002acc:	00de                	slli	ra,ra,0x17
    80002ace:	0000                	unimp
    80002ad0:	01bc                	addi	a5,sp,200
    80002ad2:	0000                	unimp
    80002ad4:	02d1                	addi	t0,t0,20
    80002ad6:	0000                	unimp
    80002ad8:	02a4                	addi	s1,sp,328
    80002ada:	0000                	unimp
    80002adc:	013d                	addi	sp,sp,15
    80002ade:	0000                	unimp
    80002ae0:	00e0                	addi	s0,sp,76
    80002ae2:	0000                	unimp
    80002ae4:	03a9                	addi	t2,t2,10
    80002ae6:	0000                	unimp
    80002ae8:	0120                	addi	s0,sp,136
    80002aea:	0000                	unimp
    80002aec:	00000077          	.insn	4, 0x0077
    80002af0:	00000267          	jalr	tp,zero # 0 <buf.2>
    80002af4:	025e                	slli	tp,tp,0x17
    80002af6:	0000                	unimp
    80002af8:	0185                	addi	gp,gp,1 # 80003fb9 <__global_pointer$+0x1>
    80002afa:	0000                	unimp
    80002afc:	015f 0000 01c7      	.insn	6, 0x01c70000015f
    80002b02:	0000                	unimp
    80002b04:	0116                	slli	sp,sp,0x5
    80002b06:	0000                	unimp
    80002b08:	0000016f          	jal	sp,80002b08 <input1_data+0x160>
    80002b0c:	0166                	slli	sp,sp,0x19
    80002b0e:	0000                	unimp
    80002b10:	0248                	addi	a0,sp,260
    80002b12:	0000                	unimp
    80002b14:	003e                	c.slli	zero,0xf
    80002b16:	0000                	unimp
    80002b18:	03d9                	addi	t2,t2,22
    80002b1a:	0000                	unimp
    80002b1c:	00000193          	li	gp,0
    80002b20:	015a                	slli	sp,sp,0x16
    80002b22:	0000                	unimp
    80002b24:	0205                	addi	tp,tp,1 # 1 <buf.2+0x1>
    80002b26:	0000                	unimp
    80002b28:	0000022f          	.insn	4, 0x022f
    80002b2c:	038c                	addi	a1,sp,448
    80002b2e:	0000                	unimp
    80002b30:	00000307          	.insn	4, 0x0307
    80002b34:	00ff 0000 030a 0000 	.insn	10, 0x02560000030a000000ff
    80002b3c:	0256 
    80002b3e:	0000                	unimp
    80002b40:	0000008f          	.insn	4, 0x008f
    80002b44:	0021                	c.nop	8
    80002b46:	0000                	unimp
    80002b48:	007d                	c.nop	31
    80002b4a:	0000                	unimp
    80002b4c:	03ad                	addi	t2,t2,11
    80002b4e:	0000                	unimp
    80002b50:	03a5                	addi	t2,t2,9
    80002b52:	0000                	unimp
    80002b54:	031f 0000 0229      	.insn	6, 0x02290000031f
    80002b5a:	0000                	unimp
    80002b5c:	000001af          	.insn	4, 0x01af
    80002b60:	0288                	addi	a0,sp,320
    80002b62:	0000                	unimp
    80002b64:	03b8                	addi	a4,sp,456
    80002b66:	0000                	unimp
    80002b68:	011f 0000 0013      	.insn	6, 0x00130000011f
    80002b6e:	0000                	unimp
    80002b70:	0031                	c.nop	12
    80002b72:	0000                	unimp
    80002b74:	0056                	c.slli	zero,0x15
    80002b76:	0000                	unimp
    80002b78:	005f 0000 01b9      	.insn	6, 0x01b90000005f
    80002b7e:	0000                	unimp
    80002b80:	0000024b          	fnmsub.s	ft4,ft0,ft0,ft0,rne
    80002b84:	0266                	slli	tp,tp,0x19
    80002b86:	0000                	unimp
    80002b88:	017e                	slli	sp,sp,0x1f
    80002b8a:	0000                	unimp
    80002b8c:	0118                	addi	a4,sp,128
    80002b8e:	0000                	unimp
    80002b90:	0328                	addi	a0,sp,392
    80002b92:	0000                	unimp
    80002b94:	000003cb          	fnmsub.s	ft7,ft0,ft0,ft0,rne
    80002b98:	00000333          	add	t1,zero,zero
    80002b9c:	0158                	addi	a4,sp,132
    80002b9e:	0000                	unimp
    80002ba0:	01c2                	slli	gp,gp,0x10
    80002ba2:	0000                	unimp
    80002ba4:	0200                	addi	s0,sp,256
    80002ba6:	0000                	unimp
    80002ba8:	03c5                	addi	t2,t2,17
    80002baa:	0000                	unimp
    80002bac:	0000015b          	.insn	4, 0x015b
    80002bb0:	0328                	addi	a0,sp,392
    80002bb2:	0000                	unimp
    80002bb4:	0372                	slli	t1,t1,0x1c
    80002bb6:	0000                	unimp
    80002bb8:	0219                	addi	tp,tp,6 # 6 <buf.2+0x6>
    80002bba:	0000                	unimp
    80002bbc:	03b2                	slli	t2,t2,0xc
    80002bbe:	0000                	unimp
    80002bc0:	02bd                	addi	t0,t0,15
    80002bc2:	0000                	unimp
    80002bc4:	0164                	addi	s1,sp,140
    80002bc6:	0000                	unimp
    80002bc8:	00000237          	lui	tp,0x0
    80002bcc:	0000037b          	.insn	4, 0x037b
    80002bd0:	0016                	c.slli	zero,0x5
    80002bd2:	0000                	unimp
    80002bd4:	0238                	addi	a4,sp,264
    80002bd6:	0000                	unimp
    80002bd8:	0299                	addi	t0,t0,6
    80002bda:	0000                	unimp
    80002bdc:	000001a7          	.insn	4, 0x01a7
    80002be0:	01b2                	slli	gp,gp,0xc
    80002be2:	0000                	unimp
    80002be4:	009e                	slli	ra,ra,0x7
    80002be6:	0000                	unimp
    80002be8:	0002                	c.slli64	zero
    80002bea:	0000                	unimp
    80002bec:	0054                	addi	a3,sp,4
    80002bee:	0000                	unimp
    80002bf0:	000000f7          	.insn	4, 0x00f7
    80002bf4:	0031                	c.nop	12
    80002bf6:	0000                	unimp
    80002bf8:	000001b3          	add	gp,zero,zero
    80002bfc:	0318                	addi	a4,sp,384
    80002bfe:	0000                	unimp
    80002c00:	0365                	addi	t1,t1,25
    80002c02:	0000                	unimp
    80002c04:	01e6                	slli	gp,gp,0x19
    80002c06:	0000                	unimp
    80002c08:	019e                	slli	gp,gp,0x7
    80002c0a:	0000                	unimp
    80002c0c:	0171                	addi	sp,sp,28
    80002c0e:	0000                	unimp
    80002c10:	0224                	addi	s1,sp,264
    80002c12:	0000                	unimp
    80002c14:	0206                	slli	tp,tp,0x1
    80002c16:	0000                	unimp
    80002c18:	0378                	addi	a4,sp,396
    80002c1a:	0000                	unimp
    80002c1c:	02aa                	slli	t0,t0,0xa
    80002c1e:	0000                	unimp
    80002c20:	011c                	addi	a5,sp,128
    80002c22:	0000                	unimp
    80002c24:	0108                	addi	a0,sp,128
    80002c26:	0000                	unimp
    80002c28:	000001f3          	.insn	4, 0x01f3
    80002c2c:	0122                	slli	sp,sp,0x8
    80002c2e:	0000                	unimp
    80002c30:	0381                	addi	t2,t2,0
    80002c32:	0000                	unimp
    80002c34:	000000d7          	.insn	4, 0x00d7
    80002c38:	000002db          	.insn	4, 0x02db
    80002c3c:	02b0                	addi	a2,sp,328
    80002c3e:	0000                	unimp
    80002c40:	000000fb          	.insn	4, 0x00fb
    80002c44:	0312                	slli	t1,t1,0x4
    80002c46:	0000                	unimp
    80002c48:	0000022b          	.insn	4, 0x022b
    80002c4c:	012e                	slli	sp,sp,0xb
    80002c4e:	0000                	unimp
    80002c50:	0210                	addi	a2,sp,256
    80002c52:	0000                	unimp
    80002c54:	0220                	addi	s0,sp,264
    80002c56:	0000                	unimp
    80002c58:	0142                	slli	sp,sp,0x10
    80002c5a:	0000                	unimp
    80002c5c:	000003b3          	add	t2,zero,zero
    80002c60:	011f 0000 0338      	.insn	6, 0x03380000011f
    80002c66:	0000                	unimp
    80002c68:	0130                	addi	a2,sp,136
    80002c6a:	0000                	unimp
    80002c6c:	0314                	addi	a3,sp,384
    80002c6e:	0000                	unimp
    80002c70:	02dd                	addi	t0,t0,23
    80002c72:	0000                	unimp
    80002c74:	000003bf 0000016e 	.insn	8, 0x016e000003bf
    80002c7c:	02d2                	slli	t0,t0,0x14
    80002c7e:	0000                	unimp
    80002c80:	0126                	slli	sp,sp,0x9
    80002c82:	0000                	unimp
    80002c84:	000003cf          	fnmadd.s	ft7,ft0,ft0,ft0,rne
    80002c88:	028d                	addi	t0,t0,3
    80002c8a:	0000                	unimp
    80002c8c:	02ec                	addi	a1,sp,332
    80002c8e:	0000                	unimp
    80002c90:	0000005b          	.insn	4, 0x005b
    80002c94:	017a                	slli	sp,sp,0x1e
    80002c96:	0000                	unimp
    80002c98:	0069                	c.nop	26
    80002c9a:	0000                	unimp
    80002c9c:	0066                	c.slli	zero,0x19
    80002c9e:	0000                	unimp
    80002ca0:	017d                	addi	sp,sp,31
    80002ca2:	0000                	unimp
    80002ca4:	0000028b          	.insn	4, 0x028b
    80002ca8:	0339                	addi	t1,t1,14
    80002caa:	0000                	unimp
    80002cac:	0348                	addi	a0,sp,388
    80002cae:	0000                	unimp
    80002cb0:	0164                	addi	s1,sp,140
    80002cb2:	0000                	unimp
    80002cb4:	0094                	addi	a3,sp,64
    80002cb6:	0000                	unimp
    80002cb8:	0036                	c.slli	zero,0xd
    80002cba:	0000                	unimp
    80002cbc:	008c                	addi	a1,sp,64
    80002cbe:	0000                	unimp
    80002cc0:	000003bb          	addw	t2,zero,zero
    80002cc4:	00000157          	.insn	4, 0x0157
    80002cc8:	0215                	addi	tp,tp,5 # 5 <buf.2+0x5>
    80002cca:	0000                	unimp
    80002ccc:	02f5                	addi	t0,t0,29
    80002cce:	0000                	unimp
    80002cd0:	0209                	addi	tp,tp,2 # 2 <buf.2+0x2>
    80002cd2:	0000                	unimp
    80002cd4:	0345                	addi	t1,t1,17
    80002cd6:	0000                	unimp
    80002cd8:	0250                	addi	a2,sp,260
    80002cda:	0000                	unimp
    80002cdc:	000d                	c.nop	3
    80002cde:	0000                	unimp
    80002ce0:	00ad                	addi	ra,ra,11
    80002ce2:	0000                	unimp
    80002ce4:	0000003f 00000079 	.insn	8, 0x00790000003f
    80002cec:	0085                	addi	ra,ra,1
    80002cee:	0000                	unimp
    80002cf0:	02f6                	slli	t0,t0,0x1d
    80002cf2:	0000                	unimp
    80002cf4:	0174                	addi	a3,sp,140
    80002cf6:	0000                	unimp
    80002cf8:	000003b7          	lui	t2,0x0
    80002cfc:	00000027          	.insn	4, 0x0027
    80002d00:	0081                	addi	ra,ra,0
    80002d02:	0000                	unimp
    80002d04:	006e                	c.slli	zero,0x1b
    80002d06:	0000                	unimp
    80002d08:	0000034f          	fnmadd.s	ft6,ft0,ft0,ft0,rne
    80002d0c:	01b5                	addi	gp,gp,13 # 80003fc5 <__global_pointer$+0xd>
    80002d0e:	0000                	unimp
    80002d10:	00ff 0000 010d 0000 	.insn	10, 0x01990000010d000000ff
    80002d18:	0199 
    80002d1a:	0000                	unimp
    80002d1c:	0274                	addi	a3,sp,268
    80002d1e:	0000                	unimp
    80002d20:	0000018f          	.insn	4, 0x018f
    80002d24:	0225                	addi	tp,tp,9 # 9 <buf.2+0x9>
    80002d26:	0000                	unimp
    80002d28:	02f1                	addi	t0,t0,28
    80002d2a:	0000                	unimp
    80002d2c:	0234                	addi	a3,sp,264
    80002d2e:	0000                	unimp
    80002d30:	000000ab          	.insn	4, 0x00ab
    80002d34:	00000013          	nop
    80002d38:	000002d7          	.insn	4, 0x02d7
    80002d3c:	01f5                	addi	gp,gp,29 # 80003fd5 <__global_pointer$+0x1d>
    80002d3e:	0000                	unimp
    80002d40:	0309                	addi	t1,t1,2
    80002d42:	0000                	unimp
    80002d44:	0000002b          	.insn	4, 0x002b
    80002d48:	02f1                	addi	t0,t0,28
    80002d4a:	0000                	unimp
    80002d4c:	0051                	c.nop	20
    80002d4e:	0000                	unimp
    80002d50:	00ca                	slli	ra,ra,0x12
    80002d52:	0000                	unimp
    80002d54:	0355                	addi	t1,t1,21
    80002d56:	0000                	unimp
    80002d58:	0099                	addi	ra,ra,6
    80002d5a:	0000                	unimp
    80002d5c:	02f8                	addi	a4,sp,332
    80002d5e:	0000                	unimp
    80002d60:	0165                	addi	sp,sp,25
    80002d62:	0000                	unimp
    80002d64:	000003af          	.insn	4, 0x03af
    80002d68:	039a                	slli	t2,t2,0x6
    80002d6a:	0000                	unimp
    80002d6c:	0148                	addi	a0,sp,132
    80002d6e:	0000                	unimp
    80002d70:	01f0                	addi	a2,sp,204
    80002d72:	0000                	unimp
    80002d74:	01ba                	slli	gp,gp,0xe
    80002d76:	0000                	unimp
    80002d78:	0204                	addi	s1,sp,256
    80002d7a:	0000                	unimp
    80002d7c:	0281                	addi	t0,t0,0
    80002d7e:	0000                	unimp
    80002d80:	0114                	addi	a3,sp,128
    80002d82:	0000                	unimp
    80002d84:	0312                	slli	t1,t1,0x4
    80002d86:	0000                	unimp
    80002d88:	0071                	c.nop	28
    80002d8a:	0000                	unimp
    80002d8c:	034a                	slli	t1,t1,0x12
    80002d8e:	0000                	unimp
    80002d90:	0000038b          	.insn	4, 0x038b
    80002d94:	00000113          	li	sp,0
    80002d98:	00ed                	addi	ra,ra,27
    80002d9a:	0000                	unimp
    80002d9c:	0020                	addi	s0,sp,8
    80002d9e:	0000                	unimp
    80002da0:	0310                	addi	a2,sp,384
    80002da2:	0000                	unimp
    80002da4:	0235                	addi	tp,tp,13 # d <buf.2+0xd>
    80002da6:	0000                	unimp
    80002da8:	0165                	addi	sp,sp,25
    80002daa:	0000                	unimp
    80002dac:	00000323          	sb	zero,6(zero) # 6 <buf.2+0x6>
    80002db0:	00000333          	add	t1,zero,zero
    80002db4:	000002ef          	jal	t0,80002db4 <input1_data+0x40c>
    80002db8:	0118                	addi	a4,sp,128
    80002dba:	0000                	unimp
    80002dbc:	0055                	c.nop	21
    80002dbe:	0000                	unimp
    80002dc0:	01ca                	slli	gp,gp,0x12
    80002dc2:	0000                	unimp
    80002dc4:	01c6                	slli	gp,gp,0x11
    80002dc6:	0000                	unimp
    80002dc8:	02c6                	slli	t0,t0,0x11
    80002dca:	0000                	unimp
    80002dcc:	000001cb          	fnmsub.s	ft3,ft0,ft0,ft0,rne
    80002dd0:	0029                	c.nop	10
    80002dd2:	0000                	unimp
    80002dd4:	00fd                	addi	ra,ra,31
    80002dd6:	0000                	unimp
    80002dd8:	0179                	addi	sp,sp,30
    80002dda:	0000                	unimp
    80002ddc:	01fc                	addi	a5,sp,204
    80002dde:	0000                	unimp
    80002de0:	02bc                	addi	a5,sp,328
    80002de2:	0000                	unimp
    80002de4:	035c                	addi	a5,sp,388
    80002de6:	0000                	unimp
    80002de8:	01e0                	addi	s0,sp,204
    80002dea:	0000                	unimp
    80002dec:	02e5                	addi	t0,t0,25
    80002dee:	0000                	unimp
    80002df0:	000001f3          	.insn	4, 0x01f3
    80002df4:	02c5                	addi	t0,t0,17
    80002df6:	0000                	unimp
    80002df8:	0031                	c.nop	12
    80002dfa:	0000                	unimp
    80002dfc:	00000173          	.insn	4, 0x0173
    80002e00:	0369                	addi	t1,t1,26
    80002e02:	0000                	unimp
    80002e04:	03b1                	addi	t2,t2,12 # c <buf.2+0xc>
    80002e06:	0000                	unimp
    80002e08:	03e0                	addi	s0,sp,460
    80002e0a:	0000                	unimp
    80002e0c:	020e                	slli	tp,tp,0x3
    80002e0e:	0000                	unimp
    80002e10:	02d1                	addi	t0,t0,20
    80002e12:	0000                	unimp
    80002e14:	000001b3          	add	gp,zero,zero
    80002e18:	00e8                	addi	a0,sp,76
    80002e1a:	0000                	unimp
    80002e1c:	01f1                	addi	gp,gp,28 # 80003fd4 <__global_pointer$+0x1c>
    80002e1e:	0000                	unimp
    80002e20:	02b9                	addi	t0,t0,14
    80002e22:	0000                	unimp
    80002e24:	001e                	c.slli	zero,0x7
    80002e26:	0000                	unimp
    80002e28:	015c                	addi	a5,sp,132
    80002e2a:	0000                	unimp
    80002e2c:	00fa                	slli	ra,ra,0x1e
    80002e2e:	0000                	unimp
    80002e30:	015e                	slli	sp,sp,0x17
    80002e32:	0000                	unimp
    80002e34:	00fa                	slli	ra,ra,0x1e
    80002e36:	0000                	unimp
    80002e38:	023d                	addi	tp,tp,15 # f <buf.2+0xf>
    80002e3a:	0000                	unimp
    80002e3c:	0310                	addi	a2,sp,384
    80002e3e:	0000                	unimp
    80002e40:	02ed                	addi	t0,t0,27
    80002e42:	0000                	unimp
    80002e44:	01f6                	slli	gp,gp,0x1d
    80002e46:	0000                	unimp
    80002e48:	00000337          	lui	t1,0x0
    80002e4c:	033a                	slli	t1,t1,0xe
    80002e4e:	0000                	unimp
    80002e50:	00aa                	slli	ra,ra,0xa
    80002e52:	0000                	unimp
    80002e54:	00a0                	addi	s0,sp,72
    80002e56:	0000                	unimp

0000000080002e58 <input2_data>:
    80002e58:	01c6                	slli	gp,gp,0x11
    80002e5a:	0000                	unimp
    80002e5c:	0000014f          	fnmadd.s	ft2,ft0,ft0,ft0,rne
    80002e60:	0001                	nop
    80002e62:	0000                	unimp
    80002e64:	03dd                	addi	t2,t2,23
    80002e66:	0000                	unimp
    80002e68:	016d                	addi	sp,sp,27
    80002e6a:	0000                	unimp
    80002e6c:	023c                	addi	a5,sp,264
    80002e6e:	0000                	unimp
    80002e70:	0040                	addi	s0,sp,4
    80002e72:	0000                	unimp
    80002e74:	0099                	addi	ra,ra,6
    80002e76:	0000                	unimp
    80002e78:	00d8                	addi	a4,sp,68
    80002e7a:	0000                	unimp
    80002e7c:	008c                	addi	a1,sp,64
    80002e7e:	0000                	unimp
    80002e80:	00d2                	slli	ra,ra,0x14
    80002e82:	0000                	unimp
    80002e84:	023c                	addi	a5,sp,264
    80002e86:	0000                	unimp
    80002e88:	00000153          	fadd.s	ft2,ft0,ft0,rne
    80002e8c:	0251                	addi	tp,tp,20 # 14 <buf.2+0x14>
    80002e8e:	0000                	unimp
    80002e90:	0382                	c.slli64	t2
    80002e92:	0000                	unimp
    80002e94:	00e4                	addi	s1,sp,76
    80002e96:	0000                	unimp
    80002e98:	000c                	.insn	2, 0x000c
    80002e9a:	0000                	unimp
    80002e9c:	00000373          	.insn	4, 0x0373
    80002ea0:	02ee                	slli	t0,t0,0x1b
    80002ea2:	0000                	unimp
    80002ea4:	0286                	slli	t0,t0,0x1
    80002ea6:	0000                	unimp
    80002ea8:	01f4                	addi	a3,sp,204
    80002eaa:	0000                	unimp
    80002eac:	01b4                	addi	a3,sp,200
    80002eae:	0000                	unimp
    80002eb0:	02bd                	addi	t0,t0,15
    80002eb2:	0000                	unimp
    80002eb4:	032c                	addi	a1,sp,392
    80002eb6:	0000                	unimp
    80002eb8:	03d5                	addi	t2,t2,21
    80002eba:	0000                	unimp
    80002ebc:	0096                	slli	ra,ra,0x5
    80002ebe:	0000                	unimp
    80002ec0:	02b8                	addi	a4,sp,328
    80002ec2:	0000                	unimp
    80002ec4:	0234                	addi	a3,sp,264
    80002ec6:	0000                	unimp
    80002ec8:	0110                	addi	a2,sp,128
    80002eca:	0000                	unimp
    80002ecc:	0102                	c.slli64	sp
    80002ece:	0000                	unimp
    80002ed0:	00000287          	.insn	4, 0x0287
    80002ed4:	01fd                	addi	gp,gp,31 # 80003fd7 <__global_pointer$+0x1f>
    80002ed6:	0000                	unimp
    80002ed8:	0058                	addi	a4,sp,4
    80002eda:	0000                	unimp
    80002edc:	000002bf 0000029d 	.insn	8, 0x029d000002bf
    80002ee4:	00000177          	.insn	4, 0x0177
    80002ee8:	00000227          	.insn	4, 0x0227
    80002eec:	03a8                	addi	a0,sp,456
    80002eee:	0000                	unimp
    80002ef0:	0250                	addi	a2,sp,260
    80002ef2:	0000                	unimp
    80002ef4:	0239                	addi	tp,tp,14 # e <buf.2+0xe>
    80002ef6:	0000                	unimp
    80002ef8:	03b8                	addi	a4,sp,456
    80002efa:	0000                	unimp
    80002efc:	0320                	addi	s0,sp,392
    80002efe:	0000                	unimp
    80002f00:	0248                	addi	a0,sp,260
    80002f02:	0000                	unimp
    80002f04:	00000283          	lb	t0,0(zero) # 0 <buf.2>
    80002f08:	0170                	addi	a2,sp,140
    80002f0a:	0000                	unimp
    80002f0c:	01e9                	addi	gp,gp,26 # 80003fd2 <__global_pointer$+0x1a>
    80002f0e:	0000                	unimp
    80002f10:	0148                	addi	a0,sp,132
    80002f12:	0000                	unimp
    80002f14:	0139                	addi	sp,sp,14
    80002f16:	0000                	unimp
    80002f18:	0250                	addi	a2,sp,260
    80002f1a:	0000                	unimp
    80002f1c:	0184                	addi	s1,sp,192
    80002f1e:	0000                	unimp
    80002f20:	021f 0000 0289      	.insn	6, 0x02890000021f
    80002f26:	0000                	unimp
    80002f28:	000003d3          	fadd.s	ft7,ft0,ft0,rne
    80002f2c:	03e5                	addi	t2,t2,25
    80002f2e:	0000                	unimp
    80002f30:	032e                	slli	t1,t1,0xb
    80002f32:	0000                	unimp
    80002f34:	0000004f          	fnmadd.s	ft0,ft0,ft0,ft0,rne
    80002f38:	00d0                	addi	a2,sp,68
    80002f3a:	0000                	unimp
    80002f3c:	03e6                	slli	t2,t2,0x19
    80002f3e:	0000                	unimp
    80002f40:	0275                	addi	tp,tp,29 # 1d <buf.2+0x1d>
    80002f42:	0000                	unimp
    80002f44:	0000034f          	fnmadd.s	ft6,ft0,ft0,ft0,rne
    80002f48:	02c0                	addi	s0,sp,324
    80002f4a:	0000                	unimp
    80002f4c:	03e5                	addi	t2,t2,25
    80002f4e:	0000                	unimp
    80002f50:	00fd                	addi	ra,ra,31
    80002f52:	0000                	unimp
    80002f54:	000002cb          	fnmsub.s	ft5,ft0,ft0,ft0,rne
    80002f58:	01ae                	slli	gp,gp,0xb
    80002f5a:	0000                	unimp
    80002f5c:	019f 0000 021a      	.insn	6, 0x021a0000019f
    80002f62:	0000                	unimp
    80002f64:	02bc                	addi	a5,sp,328
    80002f66:	0000                	unimp
    80002f68:	0004                	.insn	2, 0x0004
    80002f6a:	0000                	unimp
    80002f6c:	01ee                	slli	gp,gp,0x1b
    80002f6e:	0000                	unimp
    80002f70:	0064                	addi	s1,sp,12
    80002f72:	0000                	unimp
    80002f74:	0360                	addi	s0,sp,396
    80002f76:	0000                	unimp
    80002f78:	02b5                	addi	t0,t0,13
    80002f7a:	0000                	unimp
    80002f7c:	01a0                	addi	s0,sp,200
    80002f7e:	0000                	unimp
    80002f80:	0128                	addi	a0,sp,136
    80002f82:	0000                	unimp
    80002f84:	011d                	addi	sp,sp,7
    80002f86:	0000                	unimp
    80002f88:	026c                	addi	a1,sp,268
    80002f8a:	0000                	unimp
    80002f8c:	004e                	c.slli	zero,0x13
    80002f8e:	0000                	unimp
    80002f90:	015f 0000 021c      	.insn	6, 0x021c0000015f
    80002f96:	0000                	unimp
    80002f98:	0286                	slli	t0,t0,0x1
    80002f9a:	0000                	unimp
    80002f9c:	00a9                	addi	ra,ra,10
    80002f9e:	0000                	unimp
    80002fa0:	0000020f          	.insn	4, 0x020f
    80002fa4:	0121                	addi	sp,sp,8
    80002fa6:	0000                	unimp
    80002fa8:	031c                	addi	a5,sp,384
    80002faa:	0000                	unimp
    80002fac:	0321                	addi	t1,t1,8 # 8 <buf.2+0x8>
    80002fae:	0000                	unimp
    80002fb0:	02d0                	addi	a2,sp,324
    80002fb2:	0000                	unimp
    80002fb4:	02f6                	slli	t0,t0,0x1d
    80002fb6:	0000                	unimp
    80002fb8:	02e9                	addi	t0,t0,26
    80002fba:	0000                	unimp
    80002fbc:	005c                	addi	a5,sp,4
    80002fbe:	0000                	unimp
    80002fc0:	03dd                	addi	t2,t2,23
    80002fc2:	0000                	unimp
    80002fc4:	0000010f          	.insn	4, 0x010f
    80002fc8:	0355                	addi	t1,t1,21
    80002fca:	0000                	unimp
    80002fcc:	0314                	addi	a3,sp,384
    80002fce:	0000                	unimp
    80002fd0:	00000213          	li	tp,0
    80002fd4:	00de                	slli	ra,ra,0x17
    80002fd6:	0000                	unimp
    80002fd8:	01cd                	addi	gp,gp,19 # 80003fcb <__global_pointer$+0x13>
    80002fda:	0000                	unimp
    80002fdc:	00f1                	addi	ra,ra,28
    80002fde:	0000                	unimp
    80002fe0:	0166                	slli	sp,sp,0x19
    80002fe2:	0000                	unimp
    80002fe4:	014c                	addi	a1,sp,132
    80002fe6:	0000                	unimp
    80002fe8:	02ac                	addi	a1,sp,328
    80002fea:	0000                	unimp
    80002fec:	02e4                	addi	s1,sp,332
    80002fee:	0000                	unimp
    80002ff0:	01be                	slli	gp,gp,0xf
    80002ff2:	0000                	unimp
    80002ff4:	00000137          	lui	sp,0x0
    80002ff8:	000002e7          	jalr	t0,zero # 0 <buf.2>
    80002ffc:	022d                	addi	tp,tp,11 # b <buf.2+0xb>
    80002ffe:	0000                	unimp
    80003000:	01df 0000 022d      	.insn	6, 0x022d000001df
    80003006:	0000                	unimp
    80003008:	039d                	addi	t2,t2,7
    8000300a:	0000                	unimp
    8000300c:	031c                	addi	a5,sp,384
    8000300e:	0000                	unimp
    80003010:	0165                	addi	sp,sp,25 # 19 <buf.2+0x19>
    80003012:	0000                	unimp
    80003014:	0000037b          	.insn	4, 0x037b
    80003018:	029a                	slli	t0,t0,0x6
    8000301a:	0000                	unimp
    8000301c:	0202                	c.slli64	tp
    8000301e:	0000                	unimp
    80003020:	022d                	addi	tp,tp,11 # b <buf.2+0xb>
    80003022:	0000                	unimp
    80003024:	0366                	slli	t1,t1,0x19
    80003026:	0000                	unimp
    80003028:	0355                	addi	t1,t1,21
    8000302a:	0000                	unimp
    8000302c:	01b8                	addi	a4,sp,200
    8000302e:	0000                	unimp
    80003030:	003d                	c.nop	15
    80003032:	0000                	unimp
    80003034:	02a6                	slli	t0,t0,0x9
    80003036:	0000                	unimp
    80003038:	018c                	addi	a1,sp,192
    8000303a:	0000                	unimp
    8000303c:	0009                	c.nop	2
    8000303e:	0000                	unimp
    80003040:	0011                	c.nop	4
    80003042:	0000                	unimp
    80003044:	00aa                	slli	ra,ra,0xa
    80003046:	0000                	unimp
    80003048:	00000123          	sb	zero,2(zero) # 2 <buf.2+0x2>
    8000304c:	017c                	addi	a5,sp,140
    8000304e:	0000                	unimp
    80003050:	0218                	addi	a4,sp,256
    80003052:	0000                	unimp
    80003054:	00b9                	addi	ra,ra,14
    80003056:	0000                	unimp
    80003058:	0395                	addi	t2,t2,5
    8000305a:	0000                	unimp
    8000305c:	0000021b          	sext.w	tp,zero
    80003060:	000003d7          	.insn	4, 0x03d7
    80003064:	00000377          	.insn	4, 0x0377
    80003068:	0036                	c.slli	zero,0xd
    8000306a:	0000                	unimp
    8000306c:	0264                	addi	s1,sp,268
    8000306e:	0000                	unimp
    80003070:	000003b7          	lui	t2,0x0
    80003074:	01df 0000 0097      	.insn	6, 0x0097000001df
    8000307a:	0000                	unimp
    8000307c:	00000007          	.insn	4, 0x0007
    80003080:	0281                	addi	t0,t0,0
    80003082:	0000                	unimp
    80003084:	0000014f          	fnmadd.s	ft2,ft0,ft0,ft0,rne
    80003088:	02da                	slli	t0,t0,0x16
    8000308a:	0000                	unimp
    8000308c:	005f 0000 02d8      	.insn	6, 0x02d80000005f
    80003092:	0000                	unimp
    80003094:	0118                	addi	a4,sp,128
    80003096:	0000                	unimp
    80003098:	0000018b          	.insn	4, 0x018b
    8000309c:	02b0                	addi	a2,sp,328
    8000309e:	0000                	unimp
    800030a0:	0000038f          	.insn	4, 0x038f
    800030a4:	01dc                	addi	a5,sp,196
    800030a6:	0000                	unimp
    800030a8:	0000032f          	.insn	4, 0x032f
    800030ac:	02d9                	addi	t0,t0,22
    800030ae:	0000                	unimp
    800030b0:	0109                	addi	sp,sp,2
    800030b2:	0000                	unimp
    800030b4:	007f 0000 00ec 0000 	.insn	10, 0x00d6000000ec0000007f
    800030bc:	00d6 
    800030be:	0000                	unimp
    800030c0:	00b4                	addi	a3,sp,72
    800030c2:	0000                	unimp
    800030c4:	0006                	c.slli	zero,0x1
    800030c6:	0000                	unimp
    800030c8:	000001f7          	.insn	4, 0x01f7
    800030cc:	0254                	addi	a3,sp,260
    800030ce:	0000                	unimp
    800030d0:	00ad                	addi	ra,ra,11
    800030d2:	0000                	unimp
    800030d4:	00000283          	lb	t0,0(zero) # 0 <buf.2>
    800030d8:	015a                	slli	sp,sp,0x16
    800030da:	0000                	unimp
    800030dc:	00000257          	.insn	4, 0x0257
    800030e0:	0044                	addi	s1,sp,4
    800030e2:	0000                	unimp
    800030e4:	0351                	addi	t1,t1,20
    800030e6:	0000                	unimp
    800030e8:	0292                	slli	t0,t0,0x4
    800030ea:	0000                	unimp
    800030ec:	0000026b          	.insn	4, 0x026b
    800030f0:	0079                	c.nop	30
    800030f2:	0000                	unimp
    800030f4:	00000083          	lb	ra,0(zero) # 0 <buf.2>
    800030f8:	033c                	addi	a5,sp,392
    800030fa:	0000                	unimp
    800030fc:	0000029b          	sext.w	t0,zero
    80003100:	01b1                	addi	gp,gp,12 # 80003fc4 <__global_pointer$+0xc>
    80003102:	0000                	unimp
    80003104:	000001e7          	jalr	gp,zero # 0 <buf.2>
    80003108:	02f1                	addi	t0,t0,28
    8000310a:	0000                	unimp
    8000310c:	007d                	c.nop	31
    8000310e:	0000                	unimp
    80003110:	0272                	slli	tp,tp,0x1c
    80003112:	0000                	unimp
    80003114:	000e                	c.slli	zero,0x3
    80003116:	0000                	unimp
    80003118:	000a                	c.slli	zero,0x2
    8000311a:	0000                	unimp
    8000311c:	00000193          	li	gp,0
    80003120:	006a                	c.slli	zero,0x1a
    80003122:	0000                	unimp
    80003124:	000002bf 00000332 	.insn	8, 0x0332000002bf
    8000312c:	03c4                	addi	s1,sp,452
    8000312e:	0000                	unimp
    80003130:	0196                	slli	gp,gp,0x5
    80003132:	0000                	unimp
    80003134:	036a                	slli	t1,t1,0x1a
    80003136:	0000                	unimp
    80003138:	0358                	addi	a4,sp,388
    8000313a:	0000                	unimp
    8000313c:	0056                	c.slli	zero,0x15
    8000313e:	0000                	unimp
    80003140:	003c                	addi	a5,sp,8
    80003142:	0000                	unimp
    80003144:	0294                	addi	a3,sp,320
    80003146:	0000                	unimp
    80003148:	0000029b          	sext.w	t0,zero
    8000314c:	0099                	addi	ra,ra,6
    8000314e:	0000                	unimp
    80003150:	0079                	c.nop	30
    80003152:	0000                	unimp
    80003154:	0062                	c.slli	zero,0x18
    80003156:	0000                	unimp
    80003158:	019c                	addi	a5,sp,192
    8000315a:	0000                	unimp
    8000315c:	00ec                	addi	a1,sp,76
    8000315e:	0000                	unimp
    80003160:	000c                	.insn	2, 0x000c
    80003162:	0000                	unimp
    80003164:	000001a7          	.insn	4, 0x01a7
    80003168:	03c5                	addi	t2,t2,17 # 11 <buf.2+0x11>
    8000316a:	0000                	unimp
    8000316c:	00d8                	addi	a4,sp,68
    8000316e:	0000                	unimp
    80003170:	026d                	addi	tp,tp,27 # 1b <buf.2+0x1b>
    80003172:	0000                	unimp
    80003174:	0169                	addi	sp,sp,26
    80003176:	0000                	unimp
    80003178:	0399                	addi	t2,t2,6
    8000317a:	0000                	unimp
    8000317c:	000002cb          	fnmsub.s	ft5,ft0,ft0,ft0,rne
    80003180:	00000287          	.insn	4, 0x0287
    80003184:	0000012b          	.insn	4, 0x012b
    80003188:	0376                	slli	t1,t1,0x1d
    8000318a:	0000                	unimp
    8000318c:	02aa                	slli	t0,t0,0xa
    8000318e:	0000                	unimp
    80003190:	0024                	addi	s1,sp,8
    80003192:	0000                	unimp
    80003194:	01ed                	addi	gp,gp,27 # 80003fd3 <__global_pointer$+0x1b>
    80003196:	0000                	unimp
    80003198:	00000227          	.insn	4, 0x0227
    8000319c:	0219                	addi	tp,tp,6 # 6 <buf.2+0x6>
    8000319e:	0000                	unimp
    800031a0:	03c9                	addi	t2,t2,18
    800031a2:	0000                	unimp
    800031a4:	00000283          	lb	t0,0(zero) # 0 <buf.2>
    800031a8:	01b2                	slli	gp,gp,0xc
    800031aa:	0000                	unimp
    800031ac:	019f 0000 012f      	.insn	6, 0x012f0000019f
    800031b2:	0000                	unimp
    800031b4:	01b6                	slli	gp,gp,0xd
    800031b6:	0000                	unimp
    800031b8:	035c                	addi	a5,sp,388
    800031ba:	0000                	unimp
    800031bc:	000000cb          	fnmsub.s	ft1,ft0,ft0,ft0,rne
    800031c0:	01de                	slli	gp,gp,0x17
    800031c2:	0000                	unimp
    800031c4:	03dc                	addi	a5,sp,452
    800031c6:	0000                	unimp
    800031c8:	000002a3          	sb	zero,5(zero) # 5 <buf.2+0x5>
    800031cc:	000002cf          	fnmadd.s	ft5,ft0,ft0,ft0,rne
    800031d0:	03de                	slli	t2,t2,0x17
    800031d2:	0000                	unimp
    800031d4:	0152                	slli	sp,sp,0x14
    800031d6:	0000                	unimp
    800031d8:	01c2                	slli	gp,gp,0x10
    800031da:	0000                	unimp
    800031dc:	0279                	addi	tp,tp,30 # 1e <buf.2+0x1e>
    800031de:	0000                	unimp
    800031e0:	0000009b          	sext.w	ra,zero
    800031e4:	0286                	slli	t0,t0,0x1
    800031e6:	0000                	unimp
    800031e8:	01c4                	addi	s1,sp,196
    800031ea:	0000                	unimp
    800031ec:	000001ab          	.insn	4, 0x01ab
    800031f0:	01fd                	addi	gp,gp,31 # 80003fd7 <__global_pointer$+0x1f>
    800031f2:	0000                	unimp
    800031f4:	03dc                	addi	a5,sp,452
    800031f6:	0000                	unimp
    800031f8:	01aa                	slli	gp,gp,0xa
    800031fa:	0000                	unimp
    800031fc:	000c                	.insn	2, 0x000c
    800031fe:	0000                	unimp
    80003200:	000001e3          	beqz	zero,80003a02 <_tbss_end+0x1be>
    80003204:	008e                	slli	ra,ra,0x3
    80003206:	0000                	unimp
    80003208:	00000153          	fadd.s	ft2,ft0,ft0,rne
    8000320c:	0186                	slli	gp,gp,0x1
    8000320e:	0000                	unimp
    80003210:	0032                	c.slli	zero,0xc
    80003212:	0000                	unimp
    80003214:	000000ab          	.insn	4, 0x00ab
    80003218:	0259                	addi	tp,tp,22 # 16 <buf.2+0x16>
    8000321a:	0000                	unimp
    8000321c:	0069                	c.nop	26
    8000321e:	0000                	unimp
    80003220:	03c8                	addi	a0,sp,452
    80003222:	0000                	unimp
    80003224:	0079                	c.nop	30
    80003226:	0000                	unimp
    80003228:	0000036f          	jal	t1,80003228 <input2_data+0x3d0>
    8000322c:	0051                	c.nop	20
    8000322e:	0000                	unimp
    80003230:	0366                	slli	t1,t1,0x19
    80003232:	0000                	unimp
    80003234:	0258                	addi	a4,sp,260
    80003236:	0000                	unimp
    80003238:	0000025b          	.insn	4, 0x025b
    8000323c:	00000367          	jalr	t1,zero # 0 <buf.2>
    80003240:	00000377          	.insn	4, 0x0377
    80003244:	0262                	slli	tp,tp,0x18
    80003246:	0000                	unimp
    80003248:	0194                	addi	a3,sp,192
    8000324a:	0000                	unimp
    8000324c:	00ea                	slli	ra,ra,0x1a
    8000324e:	0000                	unimp
    80003250:	02e9                	addi	t0,t0,26
    80003252:	0000                	unimp
    80003254:	020e                	slli	tp,tp,0x3
    80003256:	0000                	unimp
    80003258:	00000113          	li	sp,0
    8000325c:	01b9                	addi	gp,gp,14 # 80003fc6 <__global_pointer$+0xe>
    8000325e:	0000                	unimp
    80003260:	00e2                	slli	ra,ra,0x18
    80003262:	0000                	unimp
    80003264:	02f0                	addi	a2,sp,332
    80003266:	0000                	unimp
    80003268:	000003af          	.insn	4, 0x03af
    8000326c:	02d6                	slli	t0,t0,0x15
    8000326e:	0000                	unimp
    80003270:	02c5                	addi	t0,t0,17
    80003272:	0000                	unimp
    80003274:	00c9                	addi	ra,ra,18
    80003276:	0000                	unimp
    80003278:	0036                	c.slli	zero,0xd
    8000327a:	0000                	unimp
    8000327c:	02f6                	slli	t0,t0,0x1d
    8000327e:	0000                	unimp
    80003280:	0035                	c.nop	13
    80003282:	0000                	unimp
    80003284:	018d                	addi	gp,gp,3 # 80003fbb <__global_pointer$+0x3>
    80003286:	0000                	unimp
    80003288:	0029                	c.nop	10
    8000328a:	0000                	unimp
    8000328c:	008d                	addi	ra,ra,3
    8000328e:	0000                	unimp
    80003290:	01a0                	addi	s0,sp,200
    80003292:	0000                	unimp
    80003294:	000002eb          	.insn	4, 0x02eb
    80003298:	000000db          	.insn	4, 0x00db
    8000329c:	01de                	slli	gp,gp,0x17
    8000329e:	0000                	unimp
    800032a0:	0302                	c.slli64	t1
    800032a2:	0000                	unimp
    800032a4:	00b4                	addi	a3,sp,72
    800032a6:	0000                	unimp
    800032a8:	01e2                	slli	gp,gp,0x18
    800032aa:	0000                	unimp
    800032ac:	000002b3          	add	t0,zero,zero
    800032b0:	02d5                	addi	t0,t0,21
    800032b2:	0000                	unimp
    800032b4:	00ad                	addi	ra,ra,11
    800032b6:	0000                	unimp
    800032b8:	00ba                	slli	ra,ra,0xe
    800032ba:	0000                	unimp
    800032bc:	0392                	slli	t2,t2,0x4
    800032be:	0000                	unimp
    800032c0:	0001                	nop
    800032c2:	0000                	unimp
    800032c4:	000003c3          	fmadd.s	ft7,ft0,ft0,ft0,rne
    800032c8:	000000f7          	.insn	4, 0x00f7
    800032cc:	01d0                	addi	a2,sp,196
    800032ce:	0000                	unimp
    800032d0:	016a                	slli	sp,sp,0x1a
    800032d2:	0000                	unimp
    800032d4:	0209                	addi	tp,tp,2 # 2 <buf.2+0x2>
    800032d6:	0000                	unimp
    800032d8:	00e9                	addi	ra,ra,26
    800032da:	0000                	unimp
    800032dc:	0078                	addi	a4,sp,12
    800032de:	0000                	unimp
    800032e0:	0028                	addi	a0,sp,8
    800032e2:	0000                	unimp
    800032e4:	0000030b          	.insn	4, 0x030b
    800032e8:	000000c3          	fmadd.s	ft1,ft0,ft0,ft0,rne
    800032ec:	00a1                	addi	ra,ra,8
    800032ee:	0000                	unimp
    800032f0:	000002e7          	jalr	t0,zero # 0 <buf.2>
    800032f4:	000001b7          	lui	gp,0x0
    800032f8:	00000163          	beqz	zero,800032fa <input2_data+0x4a2>
    800032fc:	00000193          	li	gp,0
    80003300:	008d                	addi	ra,ra,3
    80003302:	0000                	unimp
    80003304:	0279                	addi	tp,tp,30 # 1e <buf.2+0x1e>
    80003306:	0000                	unimp

0000000080003308 <verify_data>:
    80003308:	000001ef          	jal	gp,80003308 <verify_data>
    8000330c:	0490                	addi	a2,sp,576
    8000330e:	0000                	unimp
    80003310:	0235                	addi	tp,tp,13 # d <buf.2+0xd>
    80003312:	0000                	unimp
    80003314:	0498                	addi	a4,sp,576
    80003316:	0000                	unimp
    80003318:	045a                	slli	s0,s0,0x16
    8000331a:	0000                	unimp
    8000331c:	039a                	slli	t2,t2,0x6
    8000331e:	0000                	unimp
    80003320:	00c4                	addi	s1,sp,68
    80003322:	0000                	unimp
    80003324:	044e                	slli	s0,s0,0x13
    80003326:	0000                	unimp
    80003328:	0320                	addi	s0,sp,392
    8000332a:	0000                	unimp
    8000332c:	03b1                	addi	t2,t2,12
    8000332e:	0000                	unimp
    80003330:	0000033f 00000242 	.insn	8, 0x02420000033f
    80003338:	04f6                	slli	s1,s1,0x1d
    8000333a:	0000                	unimp
    8000333c:	000005cb          	fnmsub.s	fa1,ft0,ft0,ft0,rne
    80003340:	050a                	slli	a0,a0,0x2
    80003342:	0000                	unimp
    80003344:	039a                	slli	t2,t2,0x6
    80003346:	0000                	unimp
    80003348:	03cd                	addi	t2,t2,19
    8000334a:	0000                	unimp
    8000334c:	03e1                	addi	t2,t2,24
    8000334e:	0000                	unimp
    80003350:	0362                	slli	t1,t1,0x18
    80003352:	0000                	unimp
    80003354:	03ae                	slli	t2,t2,0xb
    80003356:	0000                	unimp
    80003358:	039e                	slli	t2,t2,0x7
    8000335a:	0000                	unimp
    8000335c:	02ee                	slli	t0,t0,0x1b
    8000335e:	0000                	unimp
    80003360:	0550                	addi	a2,sp,644
    80003362:	0000                	unimp
    80003364:	0632                	slli	a2,a2,0xc
    80003366:	0000                	unimp
    80003368:	0514                	addi	a3,sp,640
    8000336a:	0000                	unimp
    8000336c:	033c                	addi	a5,sp,392
    8000336e:	0000                	unimp
    80003370:	00000623          	sb	zero,12(zero) # c <buf.2+0xc>
    80003374:	03ac                	addi	a1,sp,456
    80003376:	0000                	unimp
    80003378:	02ea                	slli	t0,t0,0x1a
    8000337a:	0000                	unimp
    8000337c:	04ac                	addi	a1,sp,584
    8000337e:	0000                	unimp
    80003380:	04a2                	slli	s1,s1,0x8
    80003382:	0000                	unimp
    80003384:	0436                	slli	s0,s0,0xd
    80003386:	0000                	unimp
    80003388:	00000123          	sb	zero,2(zero) # 2 <buf.2+0x2>
    8000338c:	000003d7          	.insn	4, 0x03d7
    80003390:	0594                	addi	a3,sp,704
    80003392:	0000                	unimp
    80003394:	03d5                	addi	t2,t2,21
    80003396:	0000                	unimp
    80003398:	0426                	slli	s0,s0,0x9
    8000339a:	0000                	unimp
    8000339c:	0639                	addi	a2,a2,14
    8000339e:	0000                	unimp
    800033a0:	00000313          	li	t1,0
    800033a4:	028a                	slli	t0,t0,0x2
    800033a6:	0000                	unimp
    800033a8:	000004c3          	fmadd.s	fs1,ft0,ft0,ft0,rne
    800033ac:	0405                	addi	s0,s0,1
    800033ae:	0000                	unimp
    800033b0:	0399                	addi	t2,t2,6
    800033b2:	0000                	unimp
    800033b4:	00000633          	add	a2,zero,zero
    800033b8:	04f6                	slli	s1,s1,0x1d
    800033ba:	0000                	unimp
    800033bc:	02da                	slli	t0,t0,0x16
    800033be:	0000                	unimp
    800033c0:	04d9                	addi	s1,s1,22
    800033c2:	0000                	unimp
    800033c4:	00000473          	.insn	4, 0x0473
    800033c8:	05f5                	addi	a1,a1,29
    800033ca:	0000                	unimp
    800033cc:	055d                	addi	a0,a0,23
    800033ce:	0000                	unimp
    800033d0:	02e2                	slli	t0,t0,0x18
    800033d2:	0000                	unimp
    800033d4:	0649                	addi	a2,a2,18
    800033d6:	0000                	unimp
    800033d8:	0609                	addi	a2,a2,2
    800033da:	0000                	unimp
    800033dc:	00000543          	fmadd.s	fa0,ft0,ft0,ft0,rne
    800033e0:	000005b7          	lui	a1,0x0
    800033e4:	02e0                	addi	s0,sp,332
    800033e6:	0000                	unimp
    800033e8:	0185                	addi	gp,gp,1 # 1 <buf.2+0x1>
    800033ea:	0000                	unimp
    800033ec:	0455                	addi	s0,s0,21
    800033ee:	0000                	unimp
    800033f0:	05d0                	addi	a2,sp,708
    800033f2:	0000                	unimp
    800033f4:	0390                	addi	a2,sp,448
    800033f6:	0000                	unimp
    800033f8:	03e0                	addi	s0,sp,460
    800033fa:	0000                	unimp
    800033fc:	0542                	slli	a0,a0,0x10
    800033fe:	0000                	unimp
    80003400:	018a                	slli	gp,gp,0x2
    80003402:	0000                	unimp
    80003404:	0654                	addi	a3,sp,772
    80003406:	0000                	unimp
    80003408:	0524                	addi	s1,sp,648
    8000340a:	0000                	unimp
    8000340c:	000002a7          	.insn	4, 0x02a7
    80003410:	045a                	slli	s0,s0,0x16
    80003412:	0000                	unimp
    80003414:	0000068f          	.insn	4, 0x068f
    80003418:	02fd                	addi	t0,t0,31
    8000341a:	0000                	unimp
    8000341c:	02df 0000 0242      	.insn	6, 0x0242000002df
    80003422:	0000                	unimp
    80003424:	00000553          	fadd.s	fa0,ft0,ft0,rne
    80003428:	0448                	addi	a0,sp,516
    8000342a:	0000                	unimp
    8000342c:	027e                	slli	tp,tp,0x1f
    8000342e:	0000                	unimp
    80003430:	02e4                	addi	s1,sp,332
    80003432:	0000                	unimp
    80003434:	03ee                	slli	t2,t2,0x1b
    80003436:	0000                	unimp
    80003438:	0510                	addi	a2,sp,640
    8000343a:	0000                	unimp
    8000343c:	0000018b          	.insn	4, 0x018b
    80003440:	0000023f 000005c5 	.insn	8, 0x05c50000023f
    80003448:	03a6                	slli	t2,t2,0x9
    8000344a:	0000                	unimp
    8000344c:	0120                	addi	s0,sp,136
    8000344e:	0000                	unimp
    80003450:	0476                	slli	s0,s0,0x1d
    80003452:	0000                	unimp
    80003454:	037f 0000 04a1 0000 	.insn	10, 0x0480000004a10000037f
    8000345c:	0480 
    8000345e:	0000                	unimp
    80003460:	00000497          	auipc	s1,0x0
    80003464:	040c                	addi	a1,sp,512
    80003466:	0000                	unimp
    80003468:	0458                	addi	a4,sp,516
    8000346a:	0000                	unimp
    8000346c:	01c2                	slli	gp,gp,0x10
    8000346e:	0000                	unimp
    80003470:	0625                	addi	a2,a2,9
    80003472:	0000                	unimp
    80003474:	014d                	addi	sp,sp,19
    80003476:	0000                	unimp
    80003478:	072e                	slli	a4,a4,0xb
    8000347a:	0000                	unimp
    8000347c:	000004a7          	.insn	4, 0x04a7
    80003480:	036d                	addi	t1,t1,27
    80003482:	0000                	unimp
    80003484:	000002e3          	beqz	zero,80003c88 <_tbss_end+0x444>
    80003488:	03fc                	addi	a5,sp,460
    8000348a:	0000                	unimp
    8000348c:	047d                	addi	s0,s0,31
    8000348e:	0000                	unimp
    80003490:	046d                	addi	s0,s0,27
    80003492:	0000                	unimp
    80003494:	0000024b          	fnmsub.s	ft4,ft0,ft0,ft0,rne
    80003498:	05b6                	slli	a1,a1,0xd
    8000349a:	0000                	unimp
    8000349c:	053a                	slli	a0,a0,0xe
    8000349e:	0000                	unimp
    800034a0:	024d                	addi	tp,tp,19 # 13 <buf.2+0x13>
    800034a2:	0000                	unimp
    800034a4:	0158                	addi	a4,sp,132
    800034a6:	0000                	unimp
    800034a8:	0364                	addi	s1,sp,396
    800034aa:	0000                	unimp
    800034ac:	05da                	slli	a1,a1,0x16
    800034ae:	0000                	unimp
    800034b0:	0584                	addi	s1,sp,704
    800034b2:	0000                	unimp
    800034b4:	054c                	addi	a1,sp,644
    800034b6:	0000                	unimp
    800034b8:	05c6                	slli	a1,a1,0x11
    800034ba:	0000                	unimp
    800034bc:	000004cb          	fnmsub.s	fs1,ft0,ft0,ft0,rne
    800034c0:	03ed                	addi	t2,t2,27
    800034c2:	0000                	unimp
    800034c4:	00000733          	add	a4,zero,zero
    800034c8:	03b9                	addi	t2,t2,14
    800034ca:	0000                	unimp
    800034cc:	0215                	addi	tp,tp,5 # 5 <buf.2+0x5>
    800034ce:	0000                	unimp
    800034d0:	025e                	slli	tp,tp,0x17
    800034d2:	0000                	unimp
    800034d4:	03bc                	addi	a5,sp,456
    800034d6:	0000                	unimp
    800034d8:	03b4                	addi	a3,sp,456
    800034da:	0000                	unimp
    800034dc:	0371                	addi	t1,t1,28
    800034de:	0000                	unimp
    800034e0:	0288                	addi	a0,sp,320
    800034e2:	0000                	unimp
    800034e4:	050c                	addi	a1,sp,640
    800034e6:	0000                	unimp
    800034e8:	030a                	slli	t1,t1,0x2
    800034ea:	0000                	unimp
    800034ec:	0121                	addi	sp,sp,8
    800034ee:	0000                	unimp
    800034f0:	0339                	addi	t1,t1,14
    800034f2:	0000                	unimp
    800034f4:	0475                	addi	s0,s0,29
    800034f6:	0000                	unimp
    800034f8:	0456                	slli	s0,s0,0x15
    800034fa:	0000                	unimp
    800034fc:	02d4                	addi	a3,sp,324
    800034fe:	0000                	unimp
    80003500:	03da                	slli	t2,t2,0x16
    80003502:	0000                	unimp
    80003504:	02b9                	addi	t0,t0,14
    80003506:	0000                	unimp
    80003508:	075a                	slli	a4,a4,0x16
    8000350a:	0000                	unimp
    8000350c:	0376                	slli	t1,t1,0x1d
    8000350e:	0000                	unimp
    80003510:	06ff 0000 06e9 0000 	.insn	10, 0x024f000006e9000006ff
    80003518:	024f 
    8000351a:	0000                	unimp
    8000351c:	0616                	slli	a2,a2,0x5
    8000351e:	0000                	unimp
    80003520:	0674                	addi	a3,sp,780
    80003522:	0000                	unimp
    80003524:	00000343          	fmadd.s	ft6,ft0,ft0,ft0,rne
    80003528:	02ce                	slli	t0,t0,0x13
    8000352a:	0000                	unimp
    8000352c:	0382                	c.slli64	t2
    8000352e:	0000                	unimp
    80003530:	00000297          	auipc	t0,0x0
    80003534:	00000387          	.insn	4, 0x0387
    80003538:	00000573          	.insn	4, 0x0573
    8000353c:	0206                	slli	tp,tp,0x1
    8000353e:	0000                	unimp
    80003540:	048a                	slli	s1,s1,0x2
    80003542:	0000                	unimp
    80003544:	01b6                	slli	gp,gp,0xd
    80003546:	0000                	unimp
    80003548:	018d                	addi	gp,gp,3 # 80003fbb <__global_pointer$+0x3>
    8000354a:	0000                	unimp
    8000354c:	0304                	addi	s1,sp,384
    8000354e:	0000                	unimp
    80003550:	0486                	slli	s1,s1,0x1
    80003552:	0000                	unimp
    80003554:	020d                	addi	tp,tp,3 # 3 <buf.2+0x3>
    80003556:	0000                	unimp
    80003558:	04e2                	slli	s1,s1,0x18
    8000355a:	0000                	unimp
    8000355c:	05f1                	addi	a1,a1,28 # 1c <buf.2+0x1c>
    8000355e:	0000                	unimp
    80003560:	046e                	slli	s0,s0,0x1b
    80003562:	0000                	unimp
    80003564:	0265                	addi	tp,tp,25 # 19 <buf.2+0x19>
    80003566:	0000                	unimp
    80003568:	028a                	slli	t0,t0,0x2
    8000356a:	0000                	unimp
    8000356c:	00000247          	fmsub.s	ft4,ft0,ft0,ft0,rne
    80003570:	02d8                	addi	a4,sp,324
    80003572:	0000                	unimp
    80003574:	020c                	addi	a1,sp,256
    80003576:	0000                	unimp
    80003578:	0000056f          	jal	a0,80003578 <verify_data+0x270>
    8000357c:	04fe                	slli	s1,s1,0x1f
    8000357e:	0000                	unimp
    80003580:	01c9                	addi	gp,gp,18 # 80003fca <__global_pointer$+0x12>
    80003582:	0000                	unimp
    80003584:	0000038b          	.insn	4, 0x038b
    80003588:	034d                	addi	t1,t1,19
    8000358a:	0000                	unimp
    8000358c:	0379                	addi	t1,t1,30
    8000358e:	0000                	unimp
    80003590:	03c5                	addi	t2,t2,17
    80003592:	0000                	unimp
    80003594:	0428                	addi	a0,sp,520
    80003596:	0000                	unimp
    80003598:	056d                	addi	a0,a0,27
    8000359a:	0000                	unimp
    8000359c:	0000051b          	sext.w	a0,zero
    800035a0:	0174                	addi	a3,sp,140
    800035a2:	0000                	unimp
    800035a4:	0395                	addi	t2,t2,5
    800035a6:	0000                	unimp
    800035a8:	00000567          	jalr	a0,zero # 0 <buf.2>
    800035ac:	03c9                	addi	t2,t2,18
    800035ae:	0000                	unimp
    800035b0:	03c1                	addi	t2,t2,16
    800035b2:	0000                	unimp
    800035b4:	00000407          	.insn	4, 0x0407
    800035b8:	00000433          	add	s0,zero,zero
    800035bc:	0430                	addi	a2,sp,520
    800035be:	0000                	unimp
    800035c0:	0391                	addi	t2,t2,4
    800035c2:	0000                	unimp
    800035c4:	0346                	slli	t1,t1,0x11
    800035c6:	0000                	unimp
    800035c8:	013a                	slli	sp,sp,0xe
    800035ca:	0000                	unimp
    800035cc:	000004a7          	.insn	4, 0x04a7
    800035d0:	00000347          	fmsub.s	ft6,ft0,ft0,ft0,rne
    800035d4:	067e                	slli	a2,a2,0x1f
    800035d6:	0000                	unimp
    800035d8:	04a0                	addi	s0,sp,584
    800035da:	0000                	unimp
    800035dc:	0696                	slli	a3,a3,0x5
    800035de:	0000                	unimp
    800035e0:	02bc                	addi	a5,sp,328
    800035e2:	0000                	unimp
    800035e4:	0739                	addi	a4,a4,14
    800035e6:	0000                	unimp
    800035e8:	05e5                	addi	a1,a1,25
    800035ea:	0000                	unimp
    800035ec:	0342                	slli	t1,t1,0x10
    800035ee:	0000                	unimp
    800035f0:	00000097          	auipc	ra,0x0
    800035f4:	040e                	slli	s0,s0,0x3
    800035f6:	0000                	unimp
    800035f8:	0304                	addi	s1,sp,384
    800035fa:	0000                	unimp
    800035fc:	00ff 0000 01f6 0000 	.insn	10, 0x02ed000001f6000000ff
    80003604:	02ed 
    80003606:	0000                	unimp
    80003608:	04d5                	addi	s1,s1,21 # 80003475 <verify_data+0x16d>
    8000360a:	0000                	unimp
    8000360c:	0434                	addi	a3,sp,520
    8000360e:	0000                	unimp
    80003610:	0170                	addi	a2,sp,140
    80003612:	0000                	unimp
    80003614:	0000023b          	addw	tp,zero,zero
    80003618:	000003fb          	.insn	4, 0x03fb
    8000361c:	0164                	addi	s1,sp,140
    8000361e:	0000                	unimp
    80003620:	0628                	addi	a0,sp,776
    80003622:	0000                	unimp
    80003624:	02c0                	addi	s0,sp,324
    80003626:	0000                	unimp
    80003628:	05ae                	slli	a1,a1,0xb
    8000362a:	0000                	unimp
    8000362c:	05c0                	addi	s0,sp,708
    8000362e:	0000                	unimp
    80003630:	0490                	addi	a2,sp,576
    80003632:	0000                	unimp
    80003634:	0470                	addi	a2,sp,524
    80003636:	0000                	unimp
    80003638:	05c6                	slli	a1,a1,0x11
    8000363a:	0000                	unimp
    8000363c:	000002b7          	lui	t0,0x0
    80003640:	00d1                	addi	ra,ra,20 # 80003604 <verify_data+0x2fc>
    80003642:	0000                	unimp
    80003644:	022c                	addi	a1,sp,264
    80003646:	0000                	unimp
    80003648:	02a0                	addi	s0,sp,328
    8000364a:	0000                	unimp
    8000364c:	029e                	slli	t0,t0,0x7
    8000364e:	0000                	unimp
    80003650:	000006bf 000003f7 	.insn	8, 0x03f7000006bf
    80003658:	0569                	addi	a0,a0,26
    8000365a:	0000                	unimp
    8000365c:	01c6                	slli	gp,gp,0x11
    8000365e:	0000                	unimp
    80003660:	01b0                	addi	a2,sp,200
    80003662:	0000                	unimp
    80003664:	0224                	addi	s1,sp,264
    80003666:	0000                	unimp
    80003668:	000006ab          	.insn	4, 0x06ab
    8000366c:	0280                	addi	s0,sp,320
    8000366e:	0000                	unimp
    80003670:	02dd                	addi	t0,t0,23 # 17 <buf.2+0x17>
    80003672:	0000                	unimp
    80003674:	04e9                	addi	s1,s1,26
    80003676:	0000                	unimp
    80003678:	043c                	addi	a5,sp,520
    8000367a:	0000                	unimp
    8000367c:	00000543          	fmadd.s	fa0,ft0,ft0,ft0,rne
    80003680:	056d                	addi	a0,a0,27
    80003682:	0000                	unimp
    80003684:	00000377          	.insn	4, 0x0377
    80003688:	000004b3          	add	s1,zero,zero
    8000368c:	04ad                	addi	s1,s1,11
    8000368e:	0000                	unimp
    80003690:	0146                	slli	sp,sp,0x11
    80003692:	0000                	unimp
    80003694:	0299                	addi	t0,t0,6
    80003696:	0000                	unimp
    80003698:	0000049b          	sext.w	s1,zero
    8000369c:	03a0                	addi	s0,sp,456
    8000369e:	0000                	unimp
    800036a0:	0506                	slli	a0,a0,0x1
    800036a2:	0000                	unimp
    800036a4:	00000407          	.insn	4, 0x0407
    800036a8:	0000049b          	sext.w	s1,zero
    800036ac:	005d                	c.nop	23
    800036ae:	0000                	unimp
    800036b0:	02ad                	addi	t0,t0,11
    800036b2:	0000                	unimp
    800036b4:	000003e3          	beqz	zero,80003eba <_tbss_end+0x676>
    800036b8:	01ec                	addi	a1,sp,204
    800036ba:	0000                	unimp
    800036bc:	047e                	slli	s0,s0,0x1f
    800036be:	0000                	unimp
    800036c0:	00000197          	auipc	gp,0x0
    800036c4:	045a                	slli	s0,s0,0x16
    800036c6:	0000                	unimp
    800036c8:	000005f3          	.insn	4, 0x05f3
    800036cc:	01b1                	addi	gp,gp,12 # 800036cc <verify_data+0x3c4>
    800036ce:	0000                	unimp
    800036d0:	05b8                	addi	a4,sp,712
    800036d2:	0000                	unimp
    800036d4:	00000233          	add	tp,zero,zero
    800036d8:	00000573          	.insn	4, 0x0573
    800036dc:	02d2                	slli	t0,t0,0x14
    800036de:	0000                	unimp
    800036e0:	047a                	slli	s0,s0,0x1e
    800036e2:	0000                	unimp
    800036e4:	056a                	slli	a0,a0,0x1a
    800036e6:	0000                	unimp
    800036e8:	02cc                	addi	a1,sp,324
    800036ea:	0000                	unimp
    800036ec:	06b1                	addi	a3,a3,12
    800036ee:	0000                	unimp
    800036f0:	0702                	c.slli64	a4
    800036f2:	0000                	unimp
    800036f4:	0375                	addi	t1,t1,29
    800036f6:	0000                	unimp
    800036f8:	0281                	addi	t0,t0,0
    800036fa:	0000                	unimp
    800036fc:	010a                	slli	sp,sp,0x2
    800036fe:	0000                	unimp
    80003700:	05f9                	addi	a1,a1,30
    80003702:	0000                	unimp
    80003704:	00000443          	fmadd.s	fs0,ft0,ft0,ft0,rne
    80003708:	0278                	addi	a4,sp,268
    8000370a:	0000                	unimp
    8000370c:	04dc                	addi	a5,sp,580
    8000370e:	0000                	unimp
    80003710:	0415                	addi	s0,s0,5
    80003712:	0000                	unimp
    80003714:	05df 0000 04c7      	.insn	6, 0x04c7000005df
    8000371a:	0000                	unimp
    8000371c:	0000032b          	.insn	4, 0x032b
    80003720:	0000048f          	.insn	4, 0x048f
    80003724:	0000028f          	.insn	4, 0x028f
    80003728:	02fc                	addi	a5,sp,332
    8000372a:	0000                	unimp
    8000372c:	04c1                	addi	s1,s1,16
    8000372e:	0000                	unimp
    80003730:	005e                	c.slli	zero,0x17
    80003732:	0000                	unimp
    80003734:	028a                	slli	t0,t0,0x2
    80003736:	0000                	unimp
    80003738:	01a2                	slli	gp,gp,0x8
    8000373a:	0000                	unimp
    8000373c:	0289                	addi	t0,t0,2
    8000373e:	0000                	unimp
    80003740:	045c                	addi	a5,sp,516
    80003742:	0000                	unimp
    80003744:	00000647          	fmsub.s	fa2,ft0,ft0,ft0,rne
    80003748:	000002bb          	addw	t0,zero,zero
    8000374c:	000004c3          	fmadd.s	fs1,ft0,ft0,ft0,rne
    80003750:	04f5                	addi	s1,s1,29
    80003752:	0000                	unimp
    80003754:	0379                	addi	t1,t1,30
    80003756:	0000                	unimp
    80003758:	00000213          	li	tp,0
    8000375c:	0426                	slli	s0,s0,0x9
    8000375e:	0000                	unimp
    80003760:	063e                	slli	a2,a2,0xf
    80003762:	0000                	unimp
    80003764:	045e                	slli	s0,s0,0x17
    80003766:	0000                	unimp
    80003768:	049a                	slli	s1,s1,0x6
    8000376a:	0000                	unimp
    8000376c:	05a0                	addi	s0,sp,712
    8000376e:	0000                	unimp
    80003770:	02d2                	slli	t0,t0,0x14
    80003772:	0000                	unimp
    80003774:	0576                	slli	a0,a0,0x1d
    80003776:	0000                	unimp
    80003778:	01df 0000 03c1      	.insn	6, 0x03c1000001df
    8000377e:	0000                	unimp
    80003780:	00000423          	sb	zero,8(zero) # 8 <buf.2+0x8>
    80003784:	00000227          	.insn	4, 0x0227
    80003788:	0245                	addi	tp,tp,17 # 11 <buf.2+0x11>
    8000378a:	0000                	unimp
    8000378c:	0172                	slli	sp,sp,0x1c
    8000378e:	0000                	unimp
    80003790:	0186                	slli	gp,gp,0x1
    80003792:	0000                	unimp
    80003794:	0405                	addi	s0,s0,1
    80003796:	0000                	unimp
    80003798:	0300                	addi	s0,sp,384
    8000379a:	0000                	unimp
    8000379c:	03b1                	addi	t2,t2,12
    8000379e:	0000                	unimp
    800037a0:	05d4                	addi	a3,sp,708
    800037a2:	0000                	unimp
    800037a4:	03ad                	addi	t2,t2,11
    800037a6:	0000                	unimp
    800037a8:	049a                	slli	s1,s1,0x6
    800037aa:	0000                	unimp
    800037ac:	04cd                	addi	s1,s1,19
    800037ae:	0000                	unimp
    800037b0:	00000137          	lui	sp,0x0
    800037b4:	0319                	addi	t1,t1,6
    800037b6:	0000                	unimp
