
dhrystone.riscv:     file format elf64-littleriscv


Disassembly of section .text.init:

0000000080000000 <_start>:
    80000000:	4081                	li	ra,0
    80000002:	4101                	li	sp,0
    80000004:	4181                	li	gp,0
    80000006:	4201                	li	tp,0
    80000008:	4281                	li	t0,0
    8000000a:	4301                	li	t1,0
    8000000c:	4381                	li	t2,0
    8000000e:	4401                	li	s0,0
    80000010:	4481                	li	s1,0
    80000012:	4501                	li	a0,0
    80000014:	4581                	li	a1,0
    80000016:	4601                	li	a2,0
    80000018:	4681                	li	a3,0
    8000001a:	4701                	li	a4,0
    8000001c:	4781                	li	a5,0
    8000001e:	4801                	li	a6,0
    80000020:	4881                	li	a7,0
    80000022:	4901                	li	s2,0
    80000024:	4981                	li	s3,0
    80000026:	4a01                	li	s4,0
    80000028:	4a81                	li	s5,0
    8000002a:	4b01                	li	s6,0
    8000002c:	4b81                	li	s7,0
    8000002e:	4c01                	li	s8,0
    80000030:	4c81                	li	s9,0
    80000032:	4d01                	li	s10,0
    80000034:	4d81                	li	s11,0
    80000036:	4e01                	li	t3,0
    80000038:	4e81                	li	t4,0
    8000003a:	4f01                	li	t5,0
    8000003c:	4f81                	li	t6,0
    8000003e:	62f9                	lui	t0,0x1e
    80000040:	6002829b          	addiw	t0,t0,1536 # 1e600 <buflen.1+0x1e5c0>
    80000044:	3002a073          	csrs	mstatus,t0
    80000048:	4285                	li	t0,1
    8000004a:	02fe                	slli	t0,t0,0x1f
    8000004c:	0002d863          	bgez	t0,8000005c <_start+0x5c>
    80000050:	4505                	li	a0,1
    80000052:	00001297          	auipc	t0,0x1
    80000056:	faa2a723          	sw	a0,-82(t0) # 80001000 <tohost>
    8000005a:	bfdd                	j	80000050 <_start+0x50>
    8000005c:	00000297          	auipc	t0,0x0
    80000060:	09028293          	addi	t0,t0,144 # 800000ec <_start+0xec>
    80000064:	30529073          	csrw	mtvec,t0
    80000068:	00301073          	fscsr	zero
    8000006c:	f0000053          	fmv.w.x	ft0,zero
    80000070:	f00000d3          	fmv.w.x	ft1,zero
    80000074:	f0000153          	fmv.w.x	ft2,zero
    80000078:	f00001d3          	fmv.w.x	ft3,zero
    8000007c:	f0000253          	fmv.w.x	ft4,zero
    80000080:	f00002d3          	fmv.w.x	ft5,zero
    80000084:	f0000353          	fmv.w.x	ft6,zero
    80000088:	f00003d3          	fmv.w.x	ft7,zero
    8000008c:	f0000453          	fmv.w.x	fs0,zero
    80000090:	f00004d3          	fmv.w.x	fs1,zero
    80000094:	f0000553          	fmv.w.x	fa0,zero
    80000098:	f00005d3          	fmv.w.x	fa1,zero
    8000009c:	f0000653          	fmv.w.x	fa2,zero
    800000a0:	f00006d3          	fmv.w.x	fa3,zero
    800000a4:	f0000753          	fmv.w.x	fa4,zero
    800000a8:	f00007d3          	fmv.w.x	fa5,zero
    800000ac:	f0000853          	fmv.w.x	fa6,zero
    800000b0:	f00008d3          	fmv.w.x	fa7,zero
    800000b4:	f0000953          	fmv.w.x	fs2,zero
    800000b8:	f00009d3          	fmv.w.x	fs3,zero
    800000bc:	f0000a53          	fmv.w.x	fs4,zero
    800000c0:	f0000ad3          	fmv.w.x	fs5,zero
    800000c4:	f0000b53          	fmv.w.x	fs6,zero
    800000c8:	f0000bd3          	fmv.w.x	fs7,zero
    800000cc:	f0000c53          	fmv.w.x	fs8,zero
    800000d0:	f0000cd3          	fmv.w.x	fs9,zero
    800000d4:	f0000d53          	fmv.w.x	fs10,zero
    800000d8:	f0000dd3          	fmv.w.x	fs11,zero
    800000dc:	f0000e53          	fmv.w.x	ft8,zero
    800000e0:	f0000ed3          	fmv.w.x	ft9,zero
    800000e4:	f0000f53          	fmv.w.x	ft10,zero
    800000e8:	f0000fd3          	fmv.w.x	ft11,zero
    800000ec:	00000297          	auipc	t0,0x0
    800000f0:	03c28293          	addi	t0,t0,60 # 80000128 <trap_entry>
    800000f4:	30529073          	csrw	mtvec,t0
    800000f8:	00004197          	auipc	gp,0x4
    800000fc:	ecc18193          	addi	gp,gp,-308 # 80003fc4 <__global_pointer$>
    80000100:	00006217          	auipc	tp,0x6
    80000104:	f7f20213          	addi	tp,tp,-129 # 8000607f <_end+0x3f>
    80000108:	fc027213          	andi	tp,tp,-64
    8000010c:	f1402573          	csrr	a0,mhartid
    80000110:	4585                	li	a1,1
    80000112:	00b57063          	bgeu	a0,a1,80000112 <_start+0x112>
    80000116:	00150113          	addi	sp,a0,1
    8000011a:	0146                	slli	sp,sp,0x11
    8000011c:	9112                	add	sp,sp,tp
    8000011e:	01151613          	slli	a2,a0,0x11
    80000122:	9232                	add	tp,tp,a2
    80000124:	6b20206f          	j	800027d6 <_init>

0000000080000128 <trap_entry>:
    80000128:	716d                	addi	sp,sp,-272
    8000012a:	e406                	sd	ra,8(sp)
    8000012c:	e80a                	sd	sp,16(sp)
    8000012e:	ec0e                	sd	gp,24(sp)
    80000130:	f012                	sd	tp,32(sp)
    80000132:	f416                	sd	t0,40(sp)
    80000134:	f81a                	sd	t1,48(sp)
    80000136:	fc1e                	sd	t2,56(sp)
    80000138:	e0a2                	sd	s0,64(sp)
    8000013a:	e4a6                	sd	s1,72(sp)
    8000013c:	e8aa                	sd	a0,80(sp)
    8000013e:	ecae                	sd	a1,88(sp)
    80000140:	f0b2                	sd	a2,96(sp)
    80000142:	f4b6                	sd	a3,104(sp)
    80000144:	f8ba                	sd	a4,112(sp)
    80000146:	fcbe                	sd	a5,120(sp)
    80000148:	e142                	sd	a6,128(sp)
    8000014a:	e546                	sd	a7,136(sp)
    8000014c:	e94a                	sd	s2,144(sp)
    8000014e:	ed4e                	sd	s3,152(sp)
    80000150:	f152                	sd	s4,160(sp)
    80000152:	f556                	sd	s5,168(sp)
    80000154:	f95a                	sd	s6,176(sp)
    80000156:	fd5e                	sd	s7,184(sp)
    80000158:	e1e2                	sd	s8,192(sp)
    8000015a:	e5e6                	sd	s9,200(sp)
    8000015c:	e9ea                	sd	s10,208(sp)
    8000015e:	edee                	sd	s11,216(sp)
    80000160:	f1f2                	sd	t3,224(sp)
    80000162:	f5f6                	sd	t4,232(sp)
    80000164:	f9fa                	sd	t5,240(sp)
    80000166:	fdfe                	sd	t6,248(sp)
    80000168:	34202573          	csrr	a0,mcause
    8000016c:	341025f3          	csrr	a1,mepc
    80000170:	860a                	mv	a2,sp
    80000172:	442020ef          	jal	800025b4 <handle_trap>
    80000176:	34151073          	csrw	mepc,a0
    8000017a:	6289                	lui	t0,0x2
    8000017c:	8002829b          	addiw	t0,t0,-2048 # 1800 <buflen.1+0x17c0>
    80000180:	3002a073          	csrs	mstatus,t0
    80000184:	60a2                	ld	ra,8(sp)
    80000186:	6142                	ld	sp,16(sp)
    80000188:	61e2                	ld	gp,24(sp)
    8000018a:	7202                	ld	tp,32(sp)
    8000018c:	72a2                	ld	t0,40(sp)
    8000018e:	7342                	ld	t1,48(sp)
    80000190:	73e2                	ld	t2,56(sp)
    80000192:	6406                	ld	s0,64(sp)
    80000194:	64a6                	ld	s1,72(sp)
    80000196:	6546                	ld	a0,80(sp)
    80000198:	65e6                	ld	a1,88(sp)
    8000019a:	7606                	ld	a2,96(sp)
    8000019c:	76a6                	ld	a3,104(sp)
    8000019e:	7746                	ld	a4,112(sp)
    800001a0:	77e6                	ld	a5,120(sp)
    800001a2:	680a                	ld	a6,128(sp)
    800001a4:	68aa                	ld	a7,136(sp)
    800001a6:	694a                	ld	s2,144(sp)
    800001a8:	69ea                	ld	s3,152(sp)
    800001aa:	7a0a                	ld	s4,160(sp)
    800001ac:	7aaa                	ld	s5,168(sp)
    800001ae:	7b4a                	ld	s6,176(sp)
    800001b0:	7bea                	ld	s7,184(sp)
    800001b2:	6c0e                	ld	s8,192(sp)
    800001b4:	6cae                	ld	s9,200(sp)
    800001b6:	6d4e                	ld	s10,208(sp)
    800001b8:	6dee                	ld	s11,216(sp)
    800001ba:	7e0e                	ld	t3,224(sp)
    800001bc:	7eae                	ld	t4,232(sp)
    800001be:	7f4e                	ld	t5,240(sp)
    800001c0:	7fee                	ld	t6,248(sp)
    800001c2:	6151                	addi	sp,sp,272
    800001c4:	30200073          	mret
    800001c8:	0001                	nop

Disassembly of section .text:

0000000080002000 <Proc_7>:
    80002000:	2509                	addiw	a0,a0,2
    80002002:	9d2d                	addw	a0,a0,a1
    80002004:	c208                	sw	a0,0(a2)
    80002006:	8082                	ret

0000000080002008 <Proc_8>:
    80002008:	0056071b          	addiw	a4,a2,5
    8000200c:	0c800813          	li	a6,200
    80002010:	03070833          	mul	a6,a4,a6
    80002014:	060a                	slli	a2,a2,0x2
    80002016:	00271793          	slli	a5,a4,0x2
    8000201a:	953e                	add	a0,a0,a5
    8000201c:	c114                	sw	a3,0(a0)
    8000201e:	dd38                	sw	a4,120(a0)
    80002020:	c154                	sw	a3,4(a0)
    80002022:	00c807b3          	add	a5,a6,a2
    80002026:	97ae                	add	a5,a5,a1
    80002028:	4b94                	lw	a3,16(a5)
    8000202a:	cbd8                	sw	a4,20(a5)
    8000202c:	cf98                	sw	a4,24(a5)
    8000202e:	0016871b          	addiw	a4,a3,1
    80002032:	cb98                	sw	a4,16(a5)
    80002034:	4118                	lw	a4,0(a0)
    80002036:	95c2                	add	a1,a1,a6
    80002038:	95b2                	add	a1,a1,a2
    8000203a:	7ff58593          	addi	a1,a1,2047
    8000203e:	4795                	li	a5,5
    80002040:	7ae5aaa3          	sw	a4,1973(a1)
    80002044:	82f1ae23          	sw	a5,-1988(gp) # 80003800 <Int_Glob>
    80002048:	8082                	ret

000000008000204a <Func_1>:
    8000204a:	0ff57513          	zext.b	a0,a0
    8000204e:	0ff5f593          	zext.b	a1,a1
    80002052:	00b50463          	beq	a0,a1,8000205a <Func_1+0x10>
    80002056:	4501                	li	a0,0
    80002058:	8082                	ret
    8000205a:	82a18aa3          	sb	a0,-1995(gp) # 800037f9 <Ch_1_Glob>
    8000205e:	4505                	li	a0,1
    80002060:	8082                	ret

0000000080002062 <Func_2>:
    80002062:	1101                	addi	sp,sp,-32
    80002064:	e822                	sd	s0,16(sp)
    80002066:	e426                	sd	s1,8(sp)
    80002068:	e04a                	sd	s2,0(sp)
    8000206a:	ec06                	sd	ra,24(sp)
    8000206c:	842a                	mv	s0,a0
    8000206e:	84ae                	mv	s1,a1
    80002070:	4905                	li	s2,1
    80002072:	0034c583          	lbu	a1,3(s1)
    80002076:	00244503          	lbu	a0,2(s0)
    8000207a:	fd1ff0ef          	jal	8000204a <Func_1>
    8000207e:	ff250ae3          	beq	a0,s2,80002072 <Func_2+0x10>
    80002082:	85a6                	mv	a1,s1
    80002084:	8522                	mv	a0,s0
    80002086:	031000ef          	jal	800028b6 <strcmp>
    8000208a:	4781                	li	a5,0
    8000208c:	00a05663          	blez	a0,80002098 <Func_2+0x36>
    80002090:	47a9                	li	a5,10
    80002092:	82f1ae23          	sw	a5,-1988(gp) # 80003800 <Int_Glob>
    80002096:	4785                	li	a5,1
    80002098:	60e2                	ld	ra,24(sp)
    8000209a:	6442                	ld	s0,16(sp)
    8000209c:	64a2                	ld	s1,8(sp)
    8000209e:	6902                	ld	s2,0(sp)
    800020a0:	853e                	mv	a0,a5
    800020a2:	6105                	addi	sp,sp,32
    800020a4:	8082                	ret

00000000800020a6 <Func_3>:
    800020a6:	1579                	addi	a0,a0,-2
    800020a8:	00153513          	seqz	a0,a0
    800020ac:	8082                	ret

00000000800020ae <Proc_6>:
    800020ae:	1101                	addi	sp,sp,-32
    800020b0:	e822                	sd	s0,16(sp)
    800020b2:	e42e                	sd	a1,8(sp)
    800020b4:	ec06                	sd	ra,24(sp)
    800020b6:	842a                	mv	s0,a0
    800020b8:	fefff0ef          	jal	800020a6 <Func_3>
    800020bc:	65a2                	ld	a1,8(sp)
    800020be:	478d                	li	a5,3
    800020c0:	c111                	beqz	a0,800020c4 <Proc_6+0x16>
    800020c2:	87a2                	mv	a5,s0
    800020c4:	c19c                	sw	a5,0(a1)
    800020c6:	4789                	li	a5,2
    800020c8:	02f40963          	beq	s0,a5,800020fa <Proc_6+0x4c>
    800020cc:	0087ef63          	bltu	a5,s0,800020ea <Proc_6+0x3c>
    800020d0:	c419                	beqz	s0,800020de <Proc_6+0x30>
    800020d2:	83c1a703          	lw	a4,-1988(gp) # 80003800 <Int_Glob>
    800020d6:	06400793          	li	a5,100
    800020da:	02e7d663          	bge	a5,a4,80002106 <Proc_6+0x58>
    800020de:	60e2                	ld	ra,24(sp)
    800020e0:	6442                	ld	s0,16(sp)
    800020e2:	0005a023          	sw	zero,0(a1)
    800020e6:	6105                	addi	sp,sp,32
    800020e8:	8082                	ret
    800020ea:	4711                	li	a4,4
    800020ec:	00e41363          	bne	s0,a4,800020f2 <Proc_6+0x44>
    800020f0:	c19c                	sw	a5,0(a1)
    800020f2:	60e2                	ld	ra,24(sp)
    800020f4:	6442                	ld	s0,16(sp)
    800020f6:	6105                	addi	sp,sp,32
    800020f8:	8082                	ret
    800020fa:	60e2                	ld	ra,24(sp)
    800020fc:	6442                	ld	s0,16(sp)
    800020fe:	4785                	li	a5,1
    80002100:	c19c                	sw	a5,0(a1)
    80002102:	6105                	addi	sp,sp,32
    80002104:	8082                	ret
    80002106:	60e2                	ld	ra,24(sp)
    80002108:	6442                	ld	s0,16(sp)
    8000210a:	478d                	li	a5,3
    8000210c:	c19c                	sw	a5,0(a1)
    8000210e:	6105                	addi	sp,sp,32
    80002110:	8082                	ret

0000000080002112 <debug_printf>:
    80002112:	7139                	addi	sp,sp,-64
    80002114:	e42e                	sd	a1,8(sp)
    80002116:	e832                	sd	a2,16(sp)
    80002118:	ec36                	sd	a3,24(sp)
    8000211a:	f03a                	sd	a4,32(sp)
    8000211c:	f43e                	sd	a5,40(sp)
    8000211e:	f842                	sd	a6,48(sp)
    80002120:	fc46                	sd	a7,56(sp)
    80002122:	6121                	addi	sp,sp,64
    80002124:	8082                	ret

0000000080002126 <Proc_2>:
    80002126:	8351c703          	lbu	a4,-1995(gp) # 800037f9 <Ch_1_Glob>
    8000212a:	04100793          	li	a5,65
    8000212e:	00f70363          	beq	a4,a5,80002134 <Proc_2+0xe>
    80002132:	8082                	ret
    80002134:	411c                	lw	a5,0(a0)
    80002136:	83c1a703          	lw	a4,-1988(gp) # 80003800 <Int_Glob>
    8000213a:	27a5                	addiw	a5,a5,9
    8000213c:	9f99                	subw	a5,a5,a4
    8000213e:	c11c                	sw	a5,0(a0)
    80002140:	8082                	ret

0000000080002142 <Proc_3>:
    80002142:	84c18793          	addi	a5,gp,-1972 # 80003810 <Ptr_Glob>
    80002146:	6390                	ld	a2,0(a5)
    80002148:	c601                	beqz	a2,80002150 <Proc_3+0xe>
    8000214a:	6218                	ld	a4,0(a2)
    8000214c:	e118                	sd	a4,0(a0)
    8000214e:	6390                	ld	a2,0(a5)
    80002150:	83c1a583          	lw	a1,-1988(gp) # 80003800 <Int_Glob>
    80002154:	0641                	addi	a2,a2,16
    80002156:	4529                	li	a0,10
    80002158:	b565                	j	80002000 <Proc_7>

000000008000215a <Proc_1>:
    8000215a:	1101                	addi	sp,sp,-32
    8000215c:	e04a                	sd	s2,0(sp)
    8000215e:	84c18913          	addi	s2,gp,-1972 # 80003810 <Ptr_Glob>
    80002162:	00093783          	ld	a5,0(s2)
    80002166:	e822                	sd	s0,16(sp)
    80002168:	e426                	sd	s1,8(sp)
    8000216a:	ec06                	sd	ra,24(sp)
    8000216c:	6100                	ld	s0,0(a0)
    8000216e:	7798                	ld	a4,40(a5)
    80002170:	0007b803          	ld	a6,0(a5)
    80002174:	6b8c                	ld	a1,16(a5)
    80002176:	6f90                	ld	a2,24(a5)
    80002178:	7394                	ld	a3,32(a5)
    8000217a:	84aa                	mv	s1,a0
    8000217c:	6788                	ld	a0,8(a5)
    8000217e:	01043023          	sd	a6,0(s0)
    80002182:	e80c                	sd	a1,16(s0)
    80002184:	e408                	sd	a0,8(s0)
    80002186:	ec10                	sd	a2,24(s0)
    80002188:	f014                	sd	a3,32(s0)
    8000218a:	f418                	sd	a4,40(s0)
    8000218c:	7b98                	ld	a4,48(a5)
    8000218e:	4795                	li	a5,5
    80002190:	8522                	mv	a0,s0
    80002192:	f818                	sd	a4,48(s0)
    80002194:	c89c                	sw	a5,16(s1)
    80002196:	c81c                	sw	a5,16(s0)
    80002198:	609c                	ld	a5,0(s1)
    8000219a:	e01c                	sd	a5,0(s0)
    8000219c:	fa7ff0ef          	jal	80002142 <Proc_3>
    800021a0:	441c                	lw	a5,8(s0)
    800021a2:	cb95                	beqz	a5,800021d6 <Proc_1+0x7c>
    800021a4:	609c                	ld	a5,0(s1)
    800021a6:	0007b883          	ld	a7,0(a5)
    800021aa:	0087b803          	ld	a6,8(a5)
    800021ae:	6b8c                	ld	a1,16(a5)
    800021b0:	6f90                	ld	a2,24(a5)
    800021b2:	7394                	ld	a3,32(a5)
    800021b4:	7798                	ld	a4,40(a5)
    800021b6:	0114b023          	sd	a7,0(s1)
    800021ba:	0104b423          	sd	a6,8(s1)
    800021be:	e88c                	sd	a1,16(s1)
    800021c0:	ec90                	sd	a2,24(s1)
    800021c2:	f094                	sd	a3,32(s1)
    800021c4:	f498                	sd	a4,40(s1)
    800021c6:	7b9c                	ld	a5,48(a5)
    800021c8:	f89c                	sd	a5,48(s1)
    800021ca:	60e2                	ld	ra,24(sp)
    800021cc:	6442                	ld	s0,16(sp)
    800021ce:	64a2                	ld	s1,8(sp)
    800021d0:	6902                	ld	s2,0(sp)
    800021d2:	6105                	addi	sp,sp,32
    800021d4:	8082                	ret
    800021d6:	4799                	li	a5,6
    800021d8:	c81c                	sw	a5,16(s0)
    800021da:	44c8                	lw	a0,12(s1)
    800021dc:	00c40593          	addi	a1,s0,12
    800021e0:	ecfff0ef          	jal	800020ae <Proc_6>
    800021e4:	00093783          	ld	a5,0(s2)
    800021e8:	4808                	lw	a0,16(s0)
    800021ea:	01040613          	addi	a2,s0,16
    800021ee:	639c                	ld	a5,0(a5)
    800021f0:	60e2                	ld	ra,24(sp)
    800021f2:	64a2                	ld	s1,8(sp)
    800021f4:	e01c                	sd	a5,0(s0)
    800021f6:	6442                	ld	s0,16(sp)
    800021f8:	6902                	ld	s2,0(sp)
    800021fa:	45a9                	li	a1,10
    800021fc:	6105                	addi	sp,sp,32
    800021fe:	b509                	j	80002000 <Proc_7>

0000000080002200 <Proc_4>:
    80002200:	8351c783          	lbu	a5,-1995(gp) # 800037f9 <Ch_1_Glob>
    80002204:	8381a683          	lw	a3,-1992(gp) # 800037fc <Bool_Glob>
    80002208:	04200713          	li	a4,66
    8000220c:	fbf78793          	addi	a5,a5,-65
    80002210:	0017b793          	seqz	a5,a5
    80002214:	8fd5                	or	a5,a5,a3
    80002216:	82f1ac23          	sw	a5,-1992(gp) # 800037fc <Bool_Glob>
    8000221a:	82e18a23          	sb	a4,-1996(gp) # 800037f8 <Ch_2_Glob>
    8000221e:	8082                	ret

0000000080002220 <Proc_5>:
    80002220:	04100793          	li	a5,65
    80002224:	8201ac23          	sw	zero,-1992(gp) # 800037fc <Bool_Glob>
    80002228:	82f18aa3          	sb	a5,-1995(gp) # 800037f9 <Ch_1_Glob>
    8000222c:	8082                	ret

000000008000222e <vprintfmt>:
    8000222e:	710d                	addi	sp,sp,-352
    80002230:	eaa2                	sd	s0,336(sp)
    80002232:	e6a6                	sd	s1,328(sp)
    80002234:	e2ca                	sd	s2,320(sp)
    80002236:	fa52                	sd	s4,304(sp)
    80002238:	f656                	sd	s5,296(sp)
    8000223a:	f25a                	sd	s6,288(sp)
    8000223c:	ee5e                	sd	s7,280(sp)
    8000223e:	ee86                	sd	ra,344(sp)
    80002240:	fe4e                	sd	s3,312(sp)
    80002242:	ea62                	sd	s8,272(sp)
    80002244:	e666                	sd	s9,264(sp)
    80002246:	e26a                	sd	s10,256(sp)
    80002248:	84aa                	mv	s1,a0
    8000224a:	8432                	mv	s0,a2
    8000224c:	8bb6                	mv	s7,a3
    8000224e:	892e                	mv	s2,a1
    80002250:	02500a13          	li	s4,37
    80002254:	05500b13          	li	s6,85
    80002258:	00001a97          	auipc	s5,0x1
    8000225c:	414a8a93          	addi	s5,s5,1044 # 8000366c <main+0xd24>
    80002260:	a029                	j	8000226a <vprintfmt+0x3c>
    80002262:	cd1d                	beqz	a0,800022a0 <vprintfmt+0x72>
    80002264:	85ca                	mv	a1,s2
    80002266:	0405                	addi	s0,s0,1
    80002268:	9482                	jalr	s1
    8000226a:	00044503          	lbu	a0,0(s0)
    8000226e:	ff451ae3          	bne	a0,s4,80002262 <vprintfmt+0x34>
    80002272:	00144683          	lbu	a3,1(s0)
    80002276:	00140c13          	addi	s8,s0,1
    8000227a:	59fd                	li	s3,-1
    8000227c:	8762                	mv	a4,s8
    8000227e:	8cce                	mv	s9,s3
    80002280:	02000d13          	li	s10,32
    80002284:	4601                	li	a2,0
    80002286:	fdd6879b          	addiw	a5,a3,-35
    8000228a:	0ff7f793          	zext.b	a5,a5
    8000228e:	00170413          	addi	s0,a4,1
    80002292:	04fb6163          	bltu	s6,a5,800022d4 <vprintfmt+0xa6>
    80002296:	078a                	slli	a5,a5,0x2
    80002298:	97d6                	add	a5,a5,s5
    8000229a:	439c                	lw	a5,0(a5)
    8000229c:	97d6                	add	a5,a5,s5
    8000229e:	8782                	jr	a5
    800022a0:	60f6                	ld	ra,344(sp)
    800022a2:	6456                	ld	s0,336(sp)
    800022a4:	64b6                	ld	s1,328(sp)
    800022a6:	6916                	ld	s2,320(sp)
    800022a8:	79f2                	ld	s3,312(sp)
    800022aa:	7a52                	ld	s4,304(sp)
    800022ac:	7ab2                	ld	s5,296(sp)
    800022ae:	7b12                	ld	s6,288(sp)
    800022b0:	6bf2                	ld	s7,280(sp)
    800022b2:	6c52                	ld	s8,272(sp)
    800022b4:	6cb2                	ld	s9,264(sp)
    800022b6:	6d12                	ld	s10,256(sp)
    800022b8:	6135                	addi	sp,sp,352
    800022ba:	8082                	ret
    800022bc:	8d36                	mv	s10,a3
    800022be:	00174683          	lbu	a3,1(a4)
    800022c2:	8722                	mv	a4,s0
    800022c4:	00170413          	addi	s0,a4,1
    800022c8:	fdd6879b          	addiw	a5,a3,-35
    800022cc:	0ff7f793          	zext.b	a5,a5
    800022d0:	fcfb73e3          	bgeu	s6,a5,80002296 <vprintfmt+0x68>
    800022d4:	85ca                	mv	a1,s2
    800022d6:	02500513          	li	a0,37
    800022da:	9482                	jalr	s1
    800022dc:	8462                	mv	s0,s8
    800022de:	b771                	j	8000226a <vprintfmt+0x3c>
    800022e0:	fd06899b          	addiw	s3,a3,-48
    800022e4:	00174683          	lbu	a3,1(a4)
    800022e8:	4825                	li	a6,9
    800022ea:	fd06879b          	addiw	a5,a3,-48
    800022ee:	1ef86a63          	bltu	a6,a5,800024e2 <vprintfmt+0x2b4>
    800022f2:	0006859b          	sext.w	a1,a3
    800022f6:	8722                	mv	a4,s0
    800022f8:	0029979b          	slliw	a5,s3,0x2
    800022fc:	00174683          	lbu	a3,1(a4)
    80002300:	013787bb          	addw	a5,a5,s3
    80002304:	0017979b          	slliw	a5,a5,0x1
    80002308:	9fad                	addw	a5,a5,a1
    8000230a:	fd06851b          	addiw	a0,a3,-48
    8000230e:	0705                	addi	a4,a4,1
    80002310:	fd07899b          	addiw	s3,a5,-48
    80002314:	0006859b          	sext.w	a1,a3
    80002318:	fea870e3          	bgeu	a6,a0,800022f8 <vprintfmt+0xca>
    8000231c:	f60cd5e3          	bgez	s9,80002286 <vprintfmt+0x58>
    80002320:	8cce                	mv	s9,s3
    80002322:	59fd                	li	s3,-1
    80002324:	b78d                	j	80002286 <vprintfmt+0x58>
    80002326:	00174683          	lbu	a3,1(a4)
    8000232a:	8722                	mv	a4,s0
    8000232c:	bfa9                	j	80002286 <vprintfmt+0x58>
    8000232e:	85ca                	mv	a1,s2
    80002330:	02500513          	li	a0,37
    80002334:	9482                	jalr	s1
    80002336:	bf15                	j	8000226a <vprintfmt+0x3c>
    80002338:	00174683          	lbu	a3,1(a4)
    8000233c:	000ba983          	lw	s3,0(s7)
    80002340:	8722                	mv	a4,s0
    80002342:	0ba1                	addi	s7,s7,8
    80002344:	bfe1                	j	8000231c <vprintfmt+0xee>
    80002346:	85ca                	mv	a1,s2
    80002348:	03000513          	li	a0,48
    8000234c:	9482                	jalr	s1
    8000234e:	85ca                	mv	a1,s2
    80002350:	07800513          	li	a0,120
    80002354:	9482                	jalr	s1
    80002356:	008b8793          	addi	a5,s7,8
    8000235a:	46c1                	li	a3,16
    8000235c:	000bb703          	ld	a4,0(s7)
    80002360:	8bbe                	mv	s7,a5
    80002362:	02d775b3          	remu	a1,a4,a3
    80002366:	0050                	addi	a2,sp,4
    80002368:	4785                	li	a5,1
    8000236a:	c02e                	sw	a1,0(sp)
    8000236c:	10d76463          	bltu	a4,a3,80002474 <vprintfmt+0x246>
    80002370:	02d75733          	divu	a4,a4,a3
    80002374:	8c3e                	mv	s8,a5
    80002376:	0611                	addi	a2,a2,4
    80002378:	2785                	addiw	a5,a5,1
    8000237a:	02d775b3          	remu	a1,a4,a3
    8000237e:	feb62e23          	sw	a1,-4(a2)
    80002382:	fed777e3          	bgeu	a4,a3,80002370 <vprintfmt+0x142>
    80002386:	0197dc63          	bge	a5,s9,8000239e <vprintfmt+0x170>
    8000238a:	2d01                	sext.w	s10,s10
    8000238c:	3cfd                	addiw	s9,s9,-1
    8000238e:	fff7899b          	addiw	s3,a5,-1
    80002392:	85ca                	mv	a1,s2
    80002394:	856a                	mv	a0,s10
    80002396:	3cfd                	addiw	s9,s9,-1
    80002398:	9482                	jalr	s1
    8000239a:	ff3c9ce3          	bne	s9,s3,80002392 <vprintfmt+0x164>
    8000239e:	0c0a                	slli	s8,s8,0x2
    800023a0:	018109b3          	add	s3,sp,s8
    800023a4:	ffc10c93          	addi	s9,sp,-4
    800023a8:	4c25                	li	s8,9
    800023aa:	0009a783          	lw	a5,0(s3)
    800023ae:	03000513          	li	a0,48
    800023b2:	00fc7463          	bgeu	s8,a5,800023ba <vprintfmt+0x18c>
    800023b6:	05700513          	li	a0,87
    800023ba:	9d3d                	addw	a0,a0,a5
    800023bc:	85ca                	mv	a1,s2
    800023be:	19f1                	addi	s3,s3,-4
    800023c0:	9482                	jalr	s1
    800023c2:	ff9994e3          	bne	s3,s9,800023aa <vprintfmt+0x17c>
    800023c6:	b555                	j	8000226a <vprintfmt+0x3c>
    800023c8:	4785                	li	a5,1
    800023ca:	008b8c13          	addi	s8,s7,8
    800023ce:	00c7c363          	blt	a5,a2,800023d4 <vprintfmt+0x1a6>
    800023d2:	c25d                	beqz	a2,80002478 <vprintfmt+0x24a>
    800023d4:	000bb983          	ld	s3,0(s7)
    800023d8:	0a09c763          	bltz	s3,80002486 <vprintfmt+0x258>
    800023dc:	874e                	mv	a4,s3
    800023de:	8be2                	mv	s7,s8
    800023e0:	46a9                	li	a3,10
    800023e2:	b741                	j	80002362 <vprintfmt+0x134>
    800023e4:	00174683          	lbu	a3,1(a4)
    800023e8:	2605                	addiw	a2,a2,1
    800023ea:	8722                	mv	a4,s0
    800023ec:	bd69                	j	80002286 <vprintfmt+0x58>
    800023ee:	46c1                	li	a3,16
    800023f0:	4705                	li	a4,1
    800023f2:	008b8793          	addi	a5,s7,8
    800023f6:	f6c743e3          	blt	a4,a2,8000235c <vprintfmt+0x12e>
    800023fa:	f22d                	bnez	a2,8000235c <vprintfmt+0x12e>
    800023fc:	000be703          	lwu	a4,0(s7)
    80002400:	8bbe                	mv	s7,a5
    80002402:	b785                	j	80002362 <vprintfmt+0x134>
    80002404:	000bbc03          	ld	s8,0(s7)
    80002408:	2d01                	sext.w	s10,s10
    8000240a:	fd3d0793          	addi	a5,s10,-45
    8000240e:	00f037b3          	snez	a5,a5
    80002412:	01902733          	sgtz	a4,s9
    80002416:	8f7d                	and	a4,a4,a5
    80002418:	0ba1                	addi	s7,s7,8
    8000241a:	060c0f63          	beqz	s8,80002498 <vprintfmt+0x26a>
    8000241e:	e741                	bnez	a4,800024a6 <vprintfmt+0x278>
    80002420:	000c4503          	lbu	a0,0(s8)
    80002424:	cd11                	beqz	a0,80002440 <vprintfmt+0x212>
    80002426:	5d7d                	li	s10,-1
    80002428:	0009c563          	bltz	s3,80002432 <vprintfmt+0x204>
    8000242c:	39fd                	addiw	s3,s3,-1
    8000242e:	01a98963          	beq	s3,s10,80002440 <vprintfmt+0x212>
    80002432:	85ca                	mv	a1,s2
    80002434:	9482                	jalr	s1
    80002436:	001c4503          	lbu	a0,1(s8)
    8000243a:	0c05                	addi	s8,s8,1
    8000243c:	3cfd                	addiw	s9,s9,-1
    8000243e:	f56d                	bnez	a0,80002428 <vprintfmt+0x1fa>
    80002440:	e39055e3          	blez	s9,8000226a <vprintfmt+0x3c>
    80002444:	85ca                	mv	a1,s2
    80002446:	02000513          	li	a0,32
    8000244a:	3cfd                	addiw	s9,s9,-1
    8000244c:	9482                	jalr	s1
    8000244e:	fe0c9be3          	bnez	s9,80002444 <vprintfmt+0x216>
    80002452:	bd21                	j	8000226a <vprintfmt+0x3c>
    80002454:	87e6                	mv	a5,s9
    80002456:	000cd363          	bgez	s9,8000245c <vprintfmt+0x22e>
    8000245a:	4781                	li	a5,0
    8000245c:	00174683          	lbu	a3,1(a4)
    80002460:	00078c9b          	sext.w	s9,a5
    80002464:	8722                	mv	a4,s0
    80002466:	b505                	j	80002286 <vprintfmt+0x58>
    80002468:	000ba503          	lw	a0,0(s7)
    8000246c:	85ca                	mv	a1,s2
    8000246e:	0ba1                	addi	s7,s7,8
    80002470:	9482                	jalr	s1
    80002472:	bbe5                	j	8000226a <vprintfmt+0x3c>
    80002474:	4c01                	li	s8,0
    80002476:	bf01                	j	80002386 <vprintfmt+0x158>
    80002478:	000ba983          	lw	s3,0(s7)
    8000247c:	bfb1                	j	800023d8 <vprintfmt+0x1aa>
    8000247e:	46a9                	li	a3,10
    80002480:	bf85                	j	800023f0 <vprintfmt+0x1c2>
    80002482:	46a1                	li	a3,8
    80002484:	b7b5                	j	800023f0 <vprintfmt+0x1c2>
    80002486:	85ca                	mv	a1,s2
    80002488:	02d00513          	li	a0,45
    8000248c:	9482                	jalr	s1
    8000248e:	41300733          	neg	a4,s3
    80002492:	8be2                	mv	s7,s8
    80002494:	46a9                	li	a3,10
    80002496:	b5f1                	j	80002362 <vprintfmt+0x134>
    80002498:	00001c17          	auipc	s8,0x1
    8000249c:	190c0c13          	addi	s8,s8,400 # 80003628 <main+0xce0>
    800024a0:	02800513          	li	a0,40
    800024a4:	d349                	beqz	a4,80002426 <vprintfmt+0x1f8>
    800024a6:	87e2                	mv	a5,s8
    800024a8:	013c06b3          	add	a3,s8,s3
    800024ac:	00099663          	bnez	s3,800024b8 <vprintfmt+0x28a>
    800024b0:	a829                	j	800024ca <vprintfmt+0x29c>
    800024b2:	0785                	addi	a5,a5,1
    800024b4:	00d78563          	beq	a5,a3,800024be <vprintfmt+0x290>
    800024b8:	0007c703          	lbu	a4,0(a5)
    800024bc:	fb7d                	bnez	a4,800024b2 <vprintfmt+0x284>
    800024be:	418787b3          	sub	a5,a5,s8
    800024c2:	40fc8cbb          	subw	s9,s9,a5
    800024c6:	01905863          	blez	s9,800024d6 <vprintfmt+0x2a8>
    800024ca:	85ca                	mv	a1,s2
    800024cc:	856a                	mv	a0,s10
    800024ce:	3cfd                	addiw	s9,s9,-1
    800024d0:	9482                	jalr	s1
    800024d2:	fe0c9ce3          	bnez	s9,800024ca <vprintfmt+0x29c>
    800024d6:	000c4503          	lbu	a0,0(s8)
    800024da:	d80508e3          	beqz	a0,8000226a <vprintfmt+0x3c>
    800024de:	5d7d                	li	s10,-1
    800024e0:	b7a1                	j	80002428 <vprintfmt+0x1fa>
    800024e2:	8722                	mv	a4,s0
    800024e4:	bd25                	j	8000231c <vprintfmt+0xee>

00000000800024e6 <sprintf_putch.0>:
    800024e6:	619c                	ld	a5,0(a1)
    800024e8:	00a78023          	sb	a0,0(a5)
    800024ec:	619c                	ld	a5,0(a1)
    800024ee:	0785                	addi	a5,a5,1
    800024f0:	e19c                	sd	a5,0(a1)
    800024f2:	8082                	ret

00000000800024f4 <putchar>:
    800024f4:	04022783          	lw	a5,64(tp) # 40 <buflen.1>
    800024f8:	00020713          	mv	a4,tp
    800024fc:	7159                	addi	sp,sp,-112
    800024fe:	973e                	add	a4,a4,a5
    80002500:	2785                	addiw	a5,a5,1
    80002502:	00a70023          	sb	a0,0(a4)
    80002506:	04f22023          	sw	a5,64(tp) # 40 <buflen.1>
    8000250a:	03f10713          	addi	a4,sp,63
    8000250e:	fc078593          	addi	a1,a5,-64
    80002512:	fc077713          	andi	a4,a4,-64
    80002516:	c591                	beqz	a1,80002522 <putchar+0x2e>
    80002518:	1559                	addi	a0,a0,-10
    8000251a:	c501                	beqz	a0,80002522 <putchar+0x2e>
    8000251c:	4501                	li	a0,0
    8000251e:	6165                	addi	sp,sp,112
    80002520:	8082                	ret
    80002522:	04000593          	li	a1,64
    80002526:	e30c                	sd	a1,0(a4)
    80002528:	4585                	li	a1,1
    8000252a:	e70c                	sd	a1,8(a4)
    8000252c:	00020693          	mv	a3,tp
    80002530:	eb14                	sd	a3,16(a4)
    80002532:	ef1c                	sd	a5,24(a4)
    80002534:	0330000f          	fence	rw,rw
    80002538:	fffff697          	auipc	a3,0xfffff
    8000253c:	b0868693          	addi	a3,a3,-1272 # 80001040 <fromhost>
    80002540:	fffff797          	auipc	a5,0xfffff
    80002544:	ace7b023          	sd	a4,-1344(a5) # 80001000 <tohost>
    80002548:	629c                	ld	a5,0(a3)
    8000254a:	dffd                	beqz	a5,80002548 <putchar+0x54>
    8000254c:	fffff797          	auipc	a5,0xfffff
    80002550:	ae07ba23          	sd	zero,-1292(a5) # 80001040 <fromhost>
    80002554:	0330000f          	fence	rw,rw
    80002558:	04022023          	sw	zero,64(tp) # 40 <buflen.1>
    8000255c:	631c                	ld	a5,0(a4)
    8000255e:	4501                	li	a0,0
    80002560:	6165                	addi	sp,sp,112
    80002562:	8082                	ret

0000000080002564 <setStats>:
    80002564:	b0002773          	csrr	a4,mcycle
    80002568:	00004797          	auipc	a5,0x4
    8000256c:	a8878793          	addi	a5,a5,-1400 # 80005ff0 <counters>
    80002570:	c511                	beqz	a0,8000257c <setStats+0x18>
    80002572:	e398                	sd	a4,0(a5)
    80002574:	b0202773          	csrr	a4,minstret
    80002578:	e798                	sd	a4,8(a5)
    8000257a:	8082                	ret
    8000257c:	6394                	ld	a3,0(a5)
    8000257e:	00001617          	auipc	a2,0x1
    80002582:	0b260613          	addi	a2,a2,178 # 80003630 <main+0xce8>
    80002586:	eb90                	sd	a2,16(a5)
    80002588:	8f15                	sub	a4,a4,a3
    8000258a:	e398                	sd	a4,0(a5)
    8000258c:	b0202773          	csrr	a4,minstret
    80002590:	6794                	ld	a3,8(a5)
    80002592:	00001617          	auipc	a2,0x1
    80002596:	0a660613          	addi	a2,a2,166 # 80003638 <main+0xcf0>
    8000259a:	ef90                	sd	a2,24(a5)
    8000259c:	8f15                	sub	a4,a4,a3
    8000259e:	e798                	sd	a4,8(a5)
    800025a0:	8082                	ret

00000000800025a2 <tohost_exit>:
    800025a2:	00151793          	slli	a5,a0,0x1
    800025a6:	0017e793          	ori	a5,a5,1
    800025aa:	fffff717          	auipc	a4,0xfffff
    800025ae:	a4f73b23          	sd	a5,-1450(a4) # 80001000 <tohost>
    800025b2:	a001                	j	800025b2 <tohost_exit+0x10>

00000000800025b4 <handle_trap>:
    800025b4:	6785                	lui	a5,0x1
    800025b6:	a7378793          	addi	a5,a5,-1421 # a73 <buflen.1+0xa33>
    800025ba:	fffff717          	auipc	a4,0xfffff
    800025be:	a4f73323          	sd	a5,-1466(a4) # 80001000 <tohost>
    800025c2:	a001                	j	800025c2 <handle_trap+0xe>

00000000800025c4 <exit>:
    800025c4:	1141                	addi	sp,sp,-16
    800025c6:	e406                	sd	ra,8(sp)
    800025c8:	fdbff0ef          	jal	800025a2 <tohost_exit>

00000000800025cc <abort>:
    800025cc:	10d00793          	li	a5,269
    800025d0:	fffff717          	auipc	a4,0xfffff
    800025d4:	a2f73823          	sd	a5,-1488(a4) # 80001000 <tohost>
    800025d8:	a001                	j	800025d8 <abort+0xc>

00000000800025da <printstr>:
    800025da:	00054783          	lbu	a5,0(a0)
    800025de:	7159                	addi	sp,sp,-112
    800025e0:	03f10693          	addi	a3,sp,63
    800025e4:	fc06f693          	andi	a3,a3,-64
    800025e8:	c799                	beqz	a5,800025f6 <printstr+0x1c>
    800025ea:	87aa                	mv	a5,a0
    800025ec:	0017c703          	lbu	a4,1(a5)
    800025f0:	0785                	addi	a5,a5,1
    800025f2:	ff6d                	bnez	a4,800025ec <printstr+0x12>
    800025f4:	8f89                	sub	a5,a5,a0
    800025f6:	04000713          	li	a4,64
    800025fa:	e298                	sd	a4,0(a3)
    800025fc:	4705                	li	a4,1
    800025fe:	e698                	sd	a4,8(a3)
    80002600:	ea88                	sd	a0,16(a3)
    80002602:	ee9c                	sd	a5,24(a3)
    80002604:	0330000f          	fence	rw,rw
    80002608:	fffff717          	auipc	a4,0xfffff
    8000260c:	a3870713          	addi	a4,a4,-1480 # 80001040 <fromhost>
    80002610:	fffff797          	auipc	a5,0xfffff
    80002614:	9ed7b823          	sd	a3,-1552(a5) # 80001000 <tohost>
    80002618:	631c                	ld	a5,0(a4)
    8000261a:	dffd                	beqz	a5,80002618 <printstr+0x3e>
    8000261c:	fffff797          	auipc	a5,0xfffff
    80002620:	a207b223          	sd	zero,-1500(a5) # 80001040 <fromhost>
    80002624:	0330000f          	fence	rw,rw
    80002628:	629c                	ld	a5,0(a3)
    8000262a:	6165                	addi	sp,sp,112
    8000262c:	8082                	ret

000000008000262e <thread_entry>:
    8000262e:	e111                	bnez	a0,80002632 <thread_entry+0x4>
    80002630:	8082                	ret
    80002632:	a001                	j	80002632 <thread_entry+0x4>

0000000080002634 <printhex>:
    80002634:	7179                	addi	sp,sp,-48
    80002636:	86aa                	mv	a3,a0
    80002638:	f406                	sd	ra,40(sp)
    8000263a:	0028                	addi	a0,sp,8
    8000263c:	01710713          	addi	a4,sp,23
    80002640:	45a5                	li	a1,9
    80002642:	a011                	j	80002646 <printhex+0x12>
    80002644:	177d                	addi	a4,a4,-1
    80002646:	00f6f793          	andi	a5,a3,15
    8000264a:	03000613          	li	a2,48
    8000264e:	00f5f463          	bgeu	a1,a5,80002656 <printhex+0x22>
    80002652:	05700613          	li	a2,87
    80002656:	9fb1                	addw	a5,a5,a2
    80002658:	00f70023          	sb	a5,0(a4)
    8000265c:	8291                	srli	a3,a3,0x4
    8000265e:	fee513e3          	bne	a0,a4,80002644 <printhex+0x10>
    80002662:	00010c23          	sb	zero,24(sp)
    80002666:	f75ff0ef          	jal	800025da <printstr>
    8000266a:	70a2                	ld	ra,40(sp)
    8000266c:	6145                	addi	sp,sp,48
    8000266e:	8082                	ret

0000000080002670 <printf>:
    80002670:	711d                	addi	sp,sp,-96
    80002672:	02810313          	addi	t1,sp,40
    80002676:	f42e                	sd	a1,40(sp)
    80002678:	f832                	sd	a2,48(sp)
    8000267a:	fc36                	sd	a3,56(sp)
    8000267c:	862a                	mv	a2,a0
    8000267e:	869a                	mv	a3,t1
    80002680:	00000517          	auipc	a0,0x0
    80002684:	e7450513          	addi	a0,a0,-396 # 800024f4 <putchar>
    80002688:	4581                	li	a1,0
    8000268a:	ec06                	sd	ra,24(sp)
    8000268c:	e0ba                	sd	a4,64(sp)
    8000268e:	e4be                	sd	a5,72(sp)
    80002690:	e8c2                	sd	a6,80(sp)
    80002692:	ecc6                	sd	a7,88(sp)
    80002694:	e41a                	sd	t1,8(sp)
    80002696:	b99ff0ef          	jal	8000222e <vprintfmt>
    8000269a:	60e2                	ld	ra,24(sp)
    8000269c:	4501                	li	a0,0
    8000269e:	6125                	addi	sp,sp,96
    800026a0:	8082                	ret

00000000800026a2 <sprintf>:
    800026a2:	711d                	addi	sp,sp,-96
    800026a4:	03010313          	addi	t1,sp,48
    800026a8:	f022                	sd	s0,32(sp)
    800026aa:	e42a                	sd	a0,8(sp)
    800026ac:	f832                	sd	a2,48(sp)
    800026ae:	fc36                	sd	a3,56(sp)
    800026b0:	842a                	mv	s0,a0
    800026b2:	862e                	mv	a2,a1
    800026b4:	00000517          	auipc	a0,0x0
    800026b8:	e3250513          	addi	a0,a0,-462 # 800024e6 <sprintf_putch.0>
    800026bc:	002c                	addi	a1,sp,8
    800026be:	869a                	mv	a3,t1
    800026c0:	f406                	sd	ra,40(sp)
    800026c2:	e4be                	sd	a5,72(sp)
    800026c4:	e0ba                	sd	a4,64(sp)
    800026c6:	e8c2                	sd	a6,80(sp)
    800026c8:	ecc6                	sd	a7,88(sp)
    800026ca:	ec1a                	sd	t1,24(sp)
    800026cc:	b63ff0ef          	jal	8000222e <vprintfmt>
    800026d0:	67a2                	ld	a5,8(sp)
    800026d2:	00078023          	sb	zero,0(a5)
    800026d6:	6522                	ld	a0,8(sp)
    800026d8:	70a2                	ld	ra,40(sp)
    800026da:	9d01                	subw	a0,a0,s0
    800026dc:	7402                	ld	s0,32(sp)
    800026de:	6125                	addi	sp,sp,96
    800026e0:	8082                	ret

00000000800026e2 <memcpy>:
    800026e2:	00c5e7b3          	or	a5,a1,a2
    800026e6:	8fc9                	or	a5,a5,a0
    800026e8:	8b9d                	andi	a5,a5,7
    800026ea:	83ae                	mv	t2,a1
    800026ec:	00c506b3          	add	a3,a0,a2
    800026f0:	cf91                	beqz	a5,8000270c <memcpy+0x2a>
    800026f2:	962e                	add	a2,a2,a1
    800026f4:	87aa                	mv	a5,a0
    800026f6:	08d57a63          	bgeu	a0,a3,8000278a <memcpy+0xa8>
    800026fa:	0005c703          	lbu	a4,0(a1)
    800026fe:	0585                	addi	a1,a1,1
    80002700:	0785                	addi	a5,a5,1
    80002702:	fee78fa3          	sb	a4,-1(a5)
    80002706:	fec59ae3          	bne	a1,a2,800026fa <memcpy+0x18>
    8000270a:	8082                	ret
    8000270c:	04050713          	addi	a4,a0,64
    80002710:	06d77e63          	bgeu	a4,a3,8000278c <memcpy+0xaa>
    80002714:	87ba                	mv	a5,a4
    80002716:	0005b283          	ld	t0,0(a1)
    8000271a:	0085bf83          	ld	t6,8(a1)
    8000271e:	0105bf03          	ld	t5,16(a1)
    80002722:	0185be83          	ld	t4,24(a1)
    80002726:	0205be03          	ld	t3,32(a1)
    8000272a:	0285b303          	ld	t1,40(a1)
    8000272e:	0305b883          	ld	a7,48(a1)
    80002732:	0385b803          	ld	a6,56(a1)
    80002736:	04078793          	addi	a5,a5,64
    8000273a:	f857b023          	sd	t0,-128(a5)
    8000273e:	f9f7b423          	sd	t6,-120(a5)
    80002742:	f9e7b823          	sd	t5,-112(a5)
    80002746:	f9d7bc23          	sd	t4,-104(a5)
    8000274a:	fbc7b023          	sd	t3,-96(a5)
    8000274e:	fa67b423          	sd	t1,-88(a5)
    80002752:	fb17b823          	sd	a7,-80(a5)
    80002756:	fb07bc23          	sd	a6,-72(a5)
    8000275a:	04058593          	addi	a1,a1,64
    8000275e:	fad7ece3          	bltu	a5,a3,80002716 <memcpy+0x34>
    80002762:	fbf60613          	addi	a2,a2,-65
    80002766:	fc067613          	andi	a2,a2,-64
    8000276a:	04038393          	addi	t2,t2,64
    8000276e:	00c707b3          	add	a5,a4,a2
    80002772:	00c385b3          	add	a1,t2,a2
    80002776:	f8d7fae3          	bgeu	a5,a3,8000270a <memcpy+0x28>
    8000277a:	6198                	ld	a4,0(a1)
    8000277c:	07a1                	addi	a5,a5,8
    8000277e:	05a1                	addi	a1,a1,8
    80002780:	fee7bc23          	sd	a4,-8(a5)
    80002784:	fed7ebe3          	bltu	a5,a3,8000277a <memcpy+0x98>
    80002788:	8082                	ret
    8000278a:	8082                	ret
    8000278c:	87aa                	mv	a5,a0
    8000278e:	b7e5                	j	80002776 <memcpy+0x94>

0000000080002790 <memset>:
    80002790:	00c567b3          	or	a5,a0,a2
    80002794:	8b9d                	andi	a5,a5,7
    80002796:	962a                	add	a2,a2,a0
    80002798:	cb91                	beqz	a5,800027ac <memset+0x1c>
    8000279a:	87aa                	mv	a5,a0
    8000279c:	02c57c63          	bgeu	a0,a2,800027d4 <memset+0x44>
    800027a0:	0785                	addi	a5,a5,1
    800027a2:	feb78fa3          	sb	a1,-1(a5)
    800027a6:	fef61de3          	bne	a2,a5,800027a0 <memset+0x10>
    800027aa:	8082                	ret
    800027ac:	fec57fe3          	bgeu	a0,a2,800027aa <memset+0x1a>
    800027b0:	010107b7          	lui	a5,0x1010
    800027b4:	10178793          	addi	a5,a5,257 # 1010101 <buflen.1+0x10100c1>
    800027b8:	02079713          	slli	a4,a5,0x20
    800027bc:	973e                	add	a4,a4,a5
    800027be:	0ff5f593          	zext.b	a1,a1
    800027c2:	02e585b3          	mul	a1,a1,a4
    800027c6:	87aa                	mv	a5,a0
    800027c8:	07a1                	addi	a5,a5,8
    800027ca:	feb7bc23          	sd	a1,-8(a5)
    800027ce:	fec7ede3          	bltu	a5,a2,800027c8 <memset+0x38>
    800027d2:	8082                	ret
    800027d4:	8082                	ret

00000000800027d6 <_init>:
    800027d6:	7171                	addi	sp,sp,-176
    800027d8:	00004797          	auipc	a5,0x4
    800027dc:	83878793          	addi	a5,a5,-1992 # 80006010 <_tdata_begin>
    800027e0:	f122                	sd	s0,160(sp)
    800027e2:	00004417          	auipc	s0,0x4
    800027e6:	82e40413          	addi	s0,s0,-2002 # 80006010 <_tdata_begin>
    800027ea:	ed26                	sd	s1,152(sp)
    800027ec:	40f404b3          	sub	s1,s0,a5
    800027f0:	8626                	mv	a2,s1
    800027f2:	e54e                	sd	s3,136(sp)
    800027f4:	e152                	sd	s4,128(sp)
    800027f6:	89aa                	mv	s3,a0
    800027f8:	8a2e                	mv	s4,a1
    800027fa:	8512                	mv	a0,tp
    800027fc:	85be                	mv	a1,a5
    800027fe:	f506                	sd	ra,168(sp)
    80002800:	e94a                	sd	s2,144(sp)
    80002802:	fcd6                	sd	s5,120(sp)
    80002804:	8a92                	mv	s5,tp
    80002806:	eddff0ef          	jal	800026e2 <memcpy>
    8000280a:	00004617          	auipc	a2,0x4
    8000280e:	87a60613          	addi	a2,a2,-1926 # 80006084 <_tbss_end>
    80002812:	8e01                	sub	a2,a2,s0
    80002814:	009a8533          	add	a0,s5,s1
    80002818:	4581                	li	a1,0
    8000281a:	f77ff0ef          	jal	80002790 <memset>
    8000281e:	85d2                	mv	a1,s4
    80002820:	854e                	mv	a0,s3
    80002822:	e0dff0ef          	jal	8000262e <thread_entry>
    80002826:	03f10913          	addi	s2,sp,63
    8000282a:	4581                	li	a1,0
    8000282c:	4501                	li	a0,0
    8000282e:	fc097913          	andi	s2,s2,-64
    80002832:	116000ef          	jal	80002948 <main>
    80002836:	00003497          	auipc	s1,0x3
    8000283a:	7ca48493          	addi	s1,s1,1994 # 80006000 <counter_names>
    8000283e:	8aaa                	mv	s5,a0
    80002840:	89ca                	mv	s3,s2
    80002842:	8a26                	mv	s4,s1
    80002844:	00003417          	auipc	s0,0x3
    80002848:	7ac40413          	addi	s0,s0,1964 # 80005ff0 <counters>
    8000284c:	6014                	ld	a3,0(s0)
    8000284e:	ee89                	bnez	a3,80002868 <_init+0x92>
    80002850:	0421                	addi	s0,s0,8
    80002852:	04a1                	addi	s1,s1,8
    80002854:	ff441ce3          	bne	s0,s4,8000284c <_init+0x76>
    80002858:	01390563          	beq	s2,s3,80002862 <_init+0x8c>
    8000285c:	854a                	mv	a0,s2
    8000285e:	d7dff0ef          	jal	800025da <printstr>
    80002862:	8556                	mv	a0,s5
    80002864:	d3fff0ef          	jal	800025a2 <tohost_exit>
    80002868:	6090                	ld	a2,0(s1)
    8000286a:	854e                	mv	a0,s3
    8000286c:	00001597          	auipc	a1,0x1
    80002870:	df458593          	addi	a1,a1,-524 # 80003660 <main+0xd18>
    80002874:	e2fff0ef          	jal	800026a2 <sprintf>
    80002878:	99aa                	add	s3,s3,a0
    8000287a:	bfd9                	j	80002850 <_init+0x7a>

000000008000287c <strlen>:
    8000287c:	00054783          	lbu	a5,0(a0)
    80002880:	cb89                	beqz	a5,80002892 <strlen+0x16>
    80002882:	87aa                	mv	a5,a0
    80002884:	0017c703          	lbu	a4,1(a5)
    80002888:	0785                	addi	a5,a5,1
    8000288a:	ff6d                	bnez	a4,80002884 <strlen+0x8>
    8000288c:	40a78533          	sub	a0,a5,a0
    80002890:	8082                	ret
    80002892:	4501                	li	a0,0
    80002894:	8082                	ret

0000000080002896 <strnlen>:
    80002896:	00b506b3          	add	a3,a0,a1
    8000289a:	87aa                	mv	a5,a0
    8000289c:	e589                	bnez	a1,800028a6 <strnlen+0x10>
    8000289e:	a811                	j	800028b2 <strnlen+0x1c>
    800028a0:	0785                	addi	a5,a5,1
    800028a2:	00d78563          	beq	a5,a3,800028ac <strnlen+0x16>
    800028a6:	0007c703          	lbu	a4,0(a5)
    800028aa:	fb7d                	bnez	a4,800028a0 <strnlen+0xa>
    800028ac:	40a78533          	sub	a0,a5,a0
    800028b0:	8082                	ret
    800028b2:	4501                	li	a0,0
    800028b4:	8082                	ret

00000000800028b6 <strcmp>:
    800028b6:	00054783          	lbu	a5,0(a0)
    800028ba:	0505                	addi	a0,a0,1
    800028bc:	0585                	addi	a1,a1,1
    800028be:	0007869b          	sext.w	a3,a5
    800028c2:	fff5c703          	lbu	a4,-1(a1)
    800028c6:	c399                	beqz	a5,800028cc <strcmp+0x16>
    800028c8:	fee687e3          	beq	a3,a4,800028b6 <strcmp>
    800028cc:	40e7853b          	subw	a0,a5,a4
    800028d0:	8082                	ret

00000000800028d2 <strcpy>:
    800028d2:	87aa                	mv	a5,a0
    800028d4:	0005c703          	lbu	a4,0(a1)
    800028d8:	0585                	addi	a1,a1,1
    800028da:	0785                	addi	a5,a5,1
    800028dc:	fee78fa3          	sb	a4,-1(a5)
    800028e0:	fb75                	bnez	a4,800028d4 <strcpy+0x2>
    800028e2:	8082                	ret

00000000800028e4 <atol>:
    800028e4:	00054703          	lbu	a4,0(a0)
    800028e8:	02000693          	li	a3,32
    800028ec:	87aa                	mv	a5,a0
    800028ee:	00d71763          	bne	a4,a3,800028fc <atol+0x18>
    800028f2:	0017c703          	lbu	a4,1(a5)
    800028f6:	0785                	addi	a5,a5,1
    800028f8:	fed70de3          	beq	a4,a3,800028f2 <atol+0xe>
    800028fc:	fd57069b          	addiw	a3,a4,-43
    80002900:	0fd6f693          	andi	a3,a3,253
    80002904:	ea95                	bnez	a3,80002938 <atol+0x54>
    80002906:	0017c683          	lbu	a3,1(a5)
    8000290a:	fd370713          	addi	a4,a4,-45
    8000290e:	00173613          	seqz	a2,a4
    80002912:	ca8d                	beqz	a3,80002944 <atol+0x60>
    80002914:	0785                	addi	a5,a5,1
    80002916:	4501                	li	a0,0
    80002918:	0785                	addi	a5,a5,1
    8000291a:	fd06859b          	addiw	a1,a3,-48
    8000291e:	00251713          	slli	a4,a0,0x2
    80002922:	0007c683          	lbu	a3,0(a5)
    80002926:	972a                	add	a4,a4,a0
    80002928:	0706                	slli	a4,a4,0x1
    8000292a:	00e58533          	add	a0,a1,a4
    8000292e:	f6ed                	bnez	a3,80002918 <atol+0x34>
    80002930:	c219                	beqz	a2,80002936 <atol+0x52>
    80002932:	40a00533          	neg	a0,a0
    80002936:	8082                	ret
    80002938:	0007c683          	lbu	a3,0(a5)
    8000293c:	4601                	li	a2,0
    8000293e:	fee1                	bnez	a3,80002916 <atol+0x32>
    80002940:	4501                	li	a0,0
    80002942:	8082                	ret
    80002944:	4501                	li	a0,0
    80002946:	b7ed                	j	80002930 <atol+0x4c>

Disassembly of section .text.startup:

0000000080002948 <main>:
    80002948:	7155                	addi	sp,sp,-208
    8000294a:	e586                	sd	ra,200(sp)
    8000294c:	e1a2                	sd	s0,192(sp)
    8000294e:	fd26                	sd	s1,184(sp)
    80002950:	0980                	addi	s0,sp,208
    80002952:	e162                	sd	s8,128(sp)
    80002954:	f94a                	sd	s2,176(sp)
    80002956:	f54e                	sd	s3,168(sp)
    80002958:	f152                	sd	s4,160(sp)
    8000295a:	ed56                	sd	s5,152(sp)
    8000295c:	e95a                	sd	s6,144(sp)
    8000295e:	e55e                	sd	s7,136(sp)
    80002960:	fce6                	sd	s9,120(sp)
    80002962:	f8ea                	sd	s10,112(sp)
    80002964:	f4ee                	sd	s11,104(sp)
    80002966:	00001797          	auipc	a5,0x1
    8000296a:	c6278793          	addi	a5,a5,-926 # 800035c8 <main+0xc80>
    8000296e:	7139                	addi	sp,sp,-64
    80002970:	0007bf83          	ld	t6,0(a5)
    80002974:	0087bf03          	ld	t5,8(a5)
    80002978:	0107b283          	ld	t0,16(a5)
    8000297c:	84418493          	addi	s1,gp,-1980 # 80003808 <Next_Ptr_Glob>
    80002980:	878a                	mv	a5,sp
    80002982:	7139                	addi	sp,sp,-64
    80002984:	00000717          	auipc	a4,0x0
    80002988:	69274703          	lbu	a4,1682(a4) # 80003016 <main+0x6ce>
    8000298c:	e03e                	sd	a5,0(sp)
    8000298e:	e09c                	sd	a5,0(s1)
    80002990:	00001797          	auipc	a5,0x1
    80002994:	c507a783          	lw	a5,-944(a5) # 800035e0 <main+0xc98>
    80002998:	4e85                	li	t4,1
    8000299a:	00000e17          	auipc	t3,0x0
    8000299e:	65ee2e03          	lw	t3,1630(t3) # 80002ff8 <main+0x6b0>
    800029a2:	00000317          	auipc	t1,0x0
    800029a6:	65a32303          	lw	t1,1626(t1) # 80002ffc <main+0x6b4>
    800029aa:	00000897          	auipc	a7,0x0
    800029ae:	6568a883          	lw	a7,1622(a7) # 80003000 <main+0x6b8>
    800029b2:	00000817          	auipc	a6,0x0
    800029b6:	65282803          	lw	a6,1618(a6) # 80003004 <main+0x6bc>
    800029ba:	00000597          	auipc	a1,0x0
    800029be:	6525a583          	lw	a1,1618(a1) # 8000300c <main+0x6c4>
    800029c2:	00000617          	auipc	a2,0x0
    800029c6:	64e62603          	lw	a2,1614(a2) # 80003010 <main+0x6c8>
    800029ca:	00000517          	auipc	a0,0x0
    800029ce:	63e52503          	lw	a0,1598(a0) # 80003008 <main+0x6c0>
    800029d2:	00000697          	auipc	a3,0x0
    800029d6:	6426d683          	lhu	a3,1602(a3) # 80003014 <main+0x6cc>
    800029da:	1e86                	slli	t4,t4,0x21
    800029dc:	e476                	sd	t4,8(sp)
    800029de:	02e10923          	sb	a4,50(sp)
    800029e2:	f6f42423          	sw	a5,-152(s0)
    800029e6:	00001717          	auipc	a4,0x1
    800029ea:	bfe75703          	lhu	a4,-1026(a4) # 800035e4 <main+0xc9c>
    800029ee:	00001797          	auipc	a5,0x1
    800029f2:	bf87c783          	lbu	a5,-1032(a5) # 800035e6 <main+0xc9e>
    800029f6:	02800e93          	li	t4,40
    800029fa:	c876                	sw	t4,16(sp)
    800029fc:	ca72                	sw	t3,20(sp)
    800029fe:	cc1a                	sw	t1,24(sp)
    80002a00:	ce46                	sw	a7,28(sp)
    80002a02:	d042                	sw	a6,32(sp)
    80002a04:	d22a                	sw	a0,36(sp)
    80002a06:	d42e                	sw	a1,40(sp)
    80002a08:	d632                	sw	a2,44(sp)
    80002a0a:	02d11823          	sh	a3,48(sp)
    80002a0e:	00000517          	auipc	a0,0x0
    80002a12:	61250513          	addi	a0,a0,1554 # 80003020 <main+0x6d8>
    80002a16:	46a9                	li	a3,10
    80002a18:	84c18c13          	addi	s8,gp,-1972 # 80003810 <Ptr_Glob>
    80002a1c:	f6f40723          	sb	a5,-146(s0)
    80002a20:	f5f43823          	sd	t6,-176(s0)
    80002a24:	00001797          	auipc	a5,0x1
    80002a28:	50d7ac23          	sw	a3,1304(a5) # 80003f3c <Arr_2_Glob+0x65c>
    80002a2c:	f5e43c23          	sd	t5,-168(s0)
    80002a30:	f6543023          	sd	t0,-160(s0)
    80002a34:	f6e41623          	sh	a4,-148(s0)
    80002a38:	002c3023          	sd	sp,0(s8)
    80002a3c:	ed6ff0ef          	jal	80002112 <debug_printf>
    80002a40:	00000597          	auipc	a1,0x0
    80002a44:	5e858593          	addi	a1,a1,1512 # 80003028 <main+0x6e0>
    80002a48:	00000517          	auipc	a0,0x0
    80002a4c:	5f050513          	addi	a0,a0,1520 # 80003038 <main+0x6f0>
    80002a50:	ec2ff0ef          	jal	80002112 <debug_printf>
    80002a54:	8301a783          	lw	a5,-2000(gp) # 800037f4 <Reg>
    80002a58:	56078b63          	beqz	a5,80002fce <main+0x686>
    80002a5c:	00000517          	auipc	a0,0x0
    80002a60:	60450513          	addi	a0,a0,1540 # 80003060 <main+0x718>
    80002a64:	eaeff0ef          	jal	80002112 <debug_printf>
    80002a68:	000f4637          	lui	a2,0xf4
    80002a6c:	24060613          	addi	a2,a2,576 # f4240 <buflen.1+0xf4200>
    80002a70:	00000597          	auipc	a1,0x0
    80002a74:	65058593          	addi	a1,a1,1616 # 800030c0 <main+0x778>
    80002a78:	00000517          	auipc	a0,0x0
    80002a7c:	65850513          	addi	a0,a0,1624 # 800030d0 <main+0x788>
    80002a80:	e92ff0ef          	jal	80002112 <debug_printf>
    80002a84:	00000517          	auipc	a0,0x0
    80002a88:	59c50513          	addi	a0,a0,1436 # 80003020 <main+0x6d8>
    80002a8c:	e86ff0ef          	jal	80002112 <debug_printf>
    80002a90:	8201a623          	sw	zero,-2004(gp) # 800037f0 <Done>
    80002a94:	00001d97          	auipc	s11,0x1
    80002a98:	b6cdad83          	lw	s11,-1172(s11) # 80003600 <main+0xcb8>
    80002a9c:	00001d17          	auipc	s10,0x1
    80002aa0:	b68d5d03          	lhu	s10,-1176(s10) # 80003604 <main+0xcbc>
    80002aa4:	00001c97          	auipc	s9,0x1
    80002aa8:	b62ccc83          	lbu	s9,-1182(s9) # 80003606 <main+0xcbe>
    80002aac:	1f400793          	li	a5,500
    80002ab0:	f2f43c23          	sd	a5,-200(s0)
    80002ab4:	00001a17          	auipc	s4,0x1
    80002ab8:	b34a0a13          	addi	s4,s4,-1228 # 800035e8 <main+0xca0>
    80002abc:	00001917          	auipc	s2,0x1
    80002ac0:	b4c90913          	addi	s2,s2,-1204 # 80003608 <main+0xcc0>
    80002ac4:	f3843483          	ld	s1,-200(s0)
    80002ac8:	00000517          	auipc	a0,0x0
    80002acc:	62050513          	addi	a0,a0,1568 # 800030e8 <main+0x7a0>
    80002ad0:	85a6                	mv	a1,s1
    80002ad2:	e40ff0ef          	jal	80002112 <debug_printf>
    80002ad6:	4505                	li	a0,1
    80002ad8:	a8dff0ef          	jal	80002564 <setStats>
    80002adc:	b00027f3          	csrr	a5,mcycle
    80002ae0:	82418713          	addi	a4,gp,-2012 # 800037e8 <Begin_Time>
    80002ae4:	00148b9b          	addiw	s7,s1,1
    80002ae8:	e31c                	sd	a5,0(a4)
    80002aea:	4485                	li	s1,1
    80002aec:	f34ff0ef          	jal	80002220 <Proc_5>
    80002af0:	f10ff0ef          	jal	80002200 <Proc_4>
    80002af4:	010a3783          	ld	a5,16(s4)
    80002af8:	008a3703          	ld	a4,8(s4)
    80002afc:	000a3683          	ld	a3,0(s4)
    80002b00:	f8f43023          	sd	a5,-128(s0)
    80002b04:	f7040593          	addi	a1,s0,-144
    80002b08:	4785                	li	a5,1
    80002b0a:	f5040513          	addi	a0,s0,-176
    80002b0e:	f6e43c23          	sd	a4,-136(s0)
    80002b12:	f6d43823          	sd	a3,-144(s0)
    80002b16:	f4f42623          	sw	a5,-180(s0)
    80002b1a:	f9b42423          	sw	s11,-120(s0)
    80002b1e:	f9a41623          	sh	s10,-116(s0)
    80002b22:	f9940723          	sb	s9,-114(s0)
    80002b26:	d3cff0ef          	jal	80002062 <Func_2>
    80002b2a:	00153513          	seqz	a0,a0
    80002b2e:	82a1ac23          	sw	a0,-1992(gp) # 800037fc <Bool_Glob>
    80002b32:	479d                	li	a5,7
    80002b34:	f4840613          	addi	a2,s0,-184
    80002b38:	458d                	li	a1,3
    80002b3a:	4509                	li	a0,2
    80002b3c:	f4f42423          	sw	a5,-184(s0)
    80002b40:	cc0ff0ef          	jal	80002000 <Proc_7>
    80002b44:	f4842683          	lw	a3,-184(s0)
    80002b48:	460d                	li	a2,3
    80002b4a:	00001597          	auipc	a1,0x1
    80002b4e:	d9658593          	addi	a1,a1,-618 # 800038e0 <Arr_2_Glob>
    80002b52:	85418513          	addi	a0,gp,-1964 # 80003818 <Arr_1_Glob>
    80002b56:	cb2ff0ef          	jal	80002008 <Proc_8>
    80002b5a:	000c3503          	ld	a0,0(s8)
    80002b5e:	dfcff0ef          	jal	8000215a <Proc_1>
    80002b62:	8341c703          	lbu	a4,-1996(gp) # 800037f8 <Ch_2_Glob>
    80002b66:	04000793          	li	a5,64
    80002b6a:	42e7f663          	bgeu	a5,a4,80002f96 <main+0x64e>
    80002b6e:	04100993          	li	s3,65
    80002b72:	4a8d                	li	s5,3
    80002b74:	a801                	j	80002b84 <main+0x23c>
    80002b76:	8341c783          	lbu	a5,-1996(gp) # 800037f8 <Ch_2_Glob>
    80002b7a:	2985                	addiw	s3,s3,1
    80002b7c:	0ff9f993          	zext.b	s3,s3
    80002b80:	0737e863          	bltu	a5,s3,80002bf0 <main+0x2a8>
    80002b84:	04300593          	li	a1,67
    80002b88:	854e                	mv	a0,s3
    80002b8a:	cc0ff0ef          	jal	8000204a <Func_1>
    80002b8e:	f4c42783          	lw	a5,-180(s0)
    80002b92:	fea792e3          	bne	a5,a0,80002b76 <main+0x22e>
    80002b96:	f4c40593          	addi	a1,s0,-180
    80002b9a:	4501                	li	a0,0
    80002b9c:	d12ff0ef          	jal	800020ae <Proc_6>
    80002ba0:	00001797          	auipc	a5,0x1
    80002ba4:	a867c783          	lbu	a5,-1402(a5) # 80003626 <main+0xcde>
    80002ba8:	00093503          	ld	a0,0(s2)
    80002bac:	00893583          	ld	a1,8(s2)
    80002bb0:	01093603          	ld	a2,16(s2)
    80002bb4:	00001697          	auipc	a3,0x1
    80002bb8:	a6c6a683          	lw	a3,-1428(a3) # 80003620 <main+0xcd8>
    80002bbc:	00001717          	auipc	a4,0x1
    80002bc0:	a6875703          	lhu	a4,-1432(a4) # 80003624 <main+0xcdc>
    80002bc4:	f8f40723          	sb	a5,-114(s0)
    80002bc8:	8341c783          	lbu	a5,-1996(gp) # 800037f8 <Ch_2_Glob>
    80002bcc:	2985                	addiw	s3,s3,1
    80002bce:	8291ae23          	sw	s1,-1988(gp) # 80003800 <Int_Glob>
    80002bd2:	f6a43823          	sd	a0,-144(s0)
    80002bd6:	f6b43c23          	sd	a1,-136(s0)
    80002bda:	f8c43023          	sd	a2,-128(s0)
    80002bde:	f8d42423          	sw	a3,-120(s0)
    80002be2:	f8e41623          	sh	a4,-116(s0)
    80002be6:	0ff9f993          	zext.b	s3,s3
    80002bea:	8aa6                	mv	s5,s1
    80002bec:	f937fce3          	bgeu	a5,s3,80002b84 <main+0x23c>
    80002bf0:	001a999b          	slliw	s3,s5,0x1
    80002bf4:	015989bb          	addw	s3,s3,s5
    80002bf8:	f4842b03          	lw	s6,-184(s0)
    80002bfc:	f4440513          	addi	a0,s0,-188
    80002c00:	2485                	addiw	s1,s1,1
    80002c02:	0369cabb          	divw	s5,s3,s6
    80002c06:	f5542223          	sw	s5,-188(s0)
    80002c0a:	d1cff0ef          	jal	80002126 <Proc_2>
    80002c0e:	ec9b9fe3          	bne	s7,s1,80002aec <main+0x1a4>
    80002c12:	b00027f3          	csrr	a5,mcycle
    80002c16:	81c18713          	addi	a4,gp,-2020 # 800037e0 <End_Time>
    80002c1a:	4501                	li	a0,0
    80002c1c:	84ba                	mv	s1,a4
    80002c1e:	e31c                	sd	a5,0(a4)
    80002c20:	945ff0ef          	jal	80002564 <setStats>
    80002c24:	8241b703          	ld	a4,-2012(gp) # 800037e8 <Begin_Time>
    80002c28:	609c                	ld	a5,0(s1)
    80002c2a:	8f99                	sub	a5,a5,a4
    80002c2c:	80f1ba23          	sd	a5,-2028(gp) # 800037d8 <User_Time>
    80002c30:	36f05563          	blez	a5,80002f9a <main+0x652>
    80002c34:	4785                	li	a5,1
    80002c36:	82f1a623          	sw	a5,-2004(gp) # 800037f0 <Done>
    80002c3a:	00000517          	auipc	a0,0x0
    80002c3e:	50e50513          	addi	a0,a0,1294 # 80003148 <main+0x800>
    80002c42:	cd0ff0ef          	jal	80002112 <debug_printf>
    80002c46:	00000517          	auipc	a0,0x0
    80002c4a:	3da50513          	addi	a0,a0,986 # 80003020 <main+0x6d8>
    80002c4e:	cc4ff0ef          	jal	80002112 <debug_printf>
    80002c52:	83c1a583          	lw	a1,-1988(gp) # 80003800 <Int_Glob>
    80002c56:	00000517          	auipc	a0,0x0
    80002c5a:	52a50513          	addi	a0,a0,1322 # 80003180 <main+0x838>
    80002c5e:	84418913          	addi	s2,gp,-1980 # 80003808 <Next_Ptr_Glob>
    80002c62:	cb0ff0ef          	jal	80002112 <debug_printf>
    80002c66:	4595                	li	a1,5
    80002c68:	00000517          	auipc	a0,0x0
    80002c6c:	53850513          	addi	a0,a0,1336 # 800031a0 <main+0x858>
    80002c70:	ca2ff0ef          	jal	80002112 <debug_printf>
    80002c74:	8381a583          	lw	a1,-1992(gp) # 800037fc <Bool_Glob>
    80002c78:	00000517          	auipc	a0,0x0
    80002c7c:	54850513          	addi	a0,a0,1352 # 800031c0 <main+0x878>
    80002c80:	416989bb          	subw	s3,s3,s6
    80002c84:	c8eff0ef          	jal	80002112 <debug_printf>
    80002c88:	4585                	li	a1,1
    80002c8a:	00000517          	auipc	a0,0x0
    80002c8e:	51650513          	addi	a0,a0,1302 # 800031a0 <main+0x858>
    80002c92:	c80ff0ef          	jal	80002112 <debug_printf>
    80002c96:	8351c583          	lbu	a1,-1995(gp) # 800037f9 <Ch_1_Glob>
    80002c9a:	00000517          	auipc	a0,0x0
    80002c9e:	54650513          	addi	a0,a0,1350 # 800031e0 <main+0x898>
    80002ca2:	0039949b          	slliw	s1,s3,0x3
    80002ca6:	c6cff0ef          	jal	80002112 <debug_printf>
    80002caa:	04100593          	li	a1,65
    80002cae:	00000517          	auipc	a0,0x0
    80002cb2:	55250513          	addi	a0,a0,1362 # 80003200 <main+0x8b8>
    80002cb6:	c5cff0ef          	jal	80002112 <debug_printf>
    80002cba:	8341c583          	lbu	a1,-1996(gp) # 800037f8 <Ch_2_Glob>
    80002cbe:	00000517          	auipc	a0,0x0
    80002cc2:	56250513          	addi	a0,a0,1378 # 80003220 <main+0x8d8>
    80002cc6:	413484bb          	subw	s1,s1,s3
    80002cca:	c48ff0ef          	jal	80002112 <debug_printf>
    80002cce:	04200593          	li	a1,66
    80002cd2:	00000517          	auipc	a0,0x0
    80002cd6:	52e50513          	addi	a0,a0,1326 # 80003200 <main+0x8b8>
    80002cda:	c38ff0ef          	jal	80002112 <debug_printf>
    80002cde:	8741a583          	lw	a1,-1932(gp) # 80003838 <Arr_1_Glob+0x20>
    80002ce2:	00000517          	auipc	a0,0x0
    80002ce6:	55e50513          	addi	a0,a0,1374 # 80003240 <main+0x8f8>
    80002cea:	c28ff0ef          	jal	80002112 <debug_printf>
    80002cee:	459d                	li	a1,7
    80002cf0:	00000517          	auipc	a0,0x0
    80002cf4:	4b050513          	addi	a0,a0,1200 # 800031a0 <main+0x858>
    80002cf8:	c1aff0ef          	jal	80002112 <debug_printf>
    80002cfc:	00001597          	auipc	a1,0x1
    80002d00:	2405a583          	lw	a1,576(a1) # 80003f3c <Arr_2_Glob+0x65c>
    80002d04:	00000517          	auipc	a0,0x0
    80002d08:	55c50513          	addi	a0,a0,1372 # 80003260 <main+0x918>
    80002d0c:	c06ff0ef          	jal	80002112 <debug_printf>
    80002d10:	00000517          	auipc	a0,0x0
    80002d14:	57050513          	addi	a0,a0,1392 # 80003280 <main+0x938>
    80002d18:	bfaff0ef          	jal	80002112 <debug_printf>
    80002d1c:	00000517          	auipc	a0,0x0
    80002d20:	59450513          	addi	a0,a0,1428 # 800032b0 <main+0x968>
    80002d24:	beeff0ef          	jal	80002112 <debug_printf>
    80002d28:	000c3783          	ld	a5,0(s8)
    80002d2c:	00000517          	auipc	a0,0x0
    80002d30:	59450513          	addi	a0,a0,1428 # 800032c0 <main+0x978>
    80002d34:	638c                	ld	a1,0(a5)
    80002d36:	bdcff0ef          	jal	80002112 <debug_printf>
    80002d3a:	00000517          	auipc	a0,0x0
    80002d3e:	5a650513          	addi	a0,a0,1446 # 800032e0 <main+0x998>
    80002d42:	bd0ff0ef          	jal	80002112 <debug_printf>
    80002d46:	000c3783          	ld	a5,0(s8)
    80002d4a:	00000517          	auipc	a0,0x0
    80002d4e:	5ce50513          	addi	a0,a0,1486 # 80003318 <main+0x9d0>
    80002d52:	478c                	lw	a1,8(a5)
    80002d54:	bbeff0ef          	jal	80002112 <debug_printf>
    80002d58:	4581                	li	a1,0
    80002d5a:	00000517          	auipc	a0,0x0
    80002d5e:	44650513          	addi	a0,a0,1094 # 800031a0 <main+0x858>
    80002d62:	bb0ff0ef          	jal	80002112 <debug_printf>
    80002d66:	000c3783          	ld	a5,0(s8)
    80002d6a:	00000517          	auipc	a0,0x0
    80002d6e:	5ce50513          	addi	a0,a0,1486 # 80003338 <main+0x9f0>
    80002d72:	47cc                	lw	a1,12(a5)
    80002d74:	b9eff0ef          	jal	80002112 <debug_printf>
    80002d78:	4589                	li	a1,2
    80002d7a:	00000517          	auipc	a0,0x0
    80002d7e:	42650513          	addi	a0,a0,1062 # 800031a0 <main+0x858>
    80002d82:	b90ff0ef          	jal	80002112 <debug_printf>
    80002d86:	000c3783          	ld	a5,0(s8)
    80002d8a:	00000517          	auipc	a0,0x0
    80002d8e:	5ce50513          	addi	a0,a0,1486 # 80003358 <main+0xa10>
    80002d92:	4b8c                	lw	a1,16(a5)
    80002d94:	b7eff0ef          	jal	80002112 <debug_printf>
    80002d98:	45c5                	li	a1,17
    80002d9a:	00000517          	auipc	a0,0x0
    80002d9e:	40650513          	addi	a0,a0,1030 # 800031a0 <main+0x858>
    80002da2:	b70ff0ef          	jal	80002112 <debug_printf>
    80002da6:	000c3583          	ld	a1,0(s8)
    80002daa:	00000517          	auipc	a0,0x0
    80002dae:	5ce50513          	addi	a0,a0,1486 # 80003378 <main+0xa30>
    80002db2:	05d1                	addi	a1,a1,20
    80002db4:	b5eff0ef          	jal	80002112 <debug_printf>
    80002db8:	00000517          	auipc	a0,0x0
    80002dbc:	5e050513          	addi	a0,a0,1504 # 80003398 <main+0xa50>
    80002dc0:	b52ff0ef          	jal	80002112 <debug_printf>
    80002dc4:	00000517          	auipc	a0,0x0
    80002dc8:	60c50513          	addi	a0,a0,1548 # 800033d0 <main+0xa88>
    80002dcc:	b46ff0ef          	jal	80002112 <debug_printf>
    80002dd0:	00093783          	ld	a5,0(s2)
    80002dd4:	00000517          	auipc	a0,0x0
    80002dd8:	4ec50513          	addi	a0,a0,1260 # 800032c0 <main+0x978>
    80002ddc:	638c                	ld	a1,0(a5)
    80002dde:	b34ff0ef          	jal	80002112 <debug_printf>
    80002de2:	00000517          	auipc	a0,0x0
    80002de6:	60650513          	addi	a0,a0,1542 # 800033e8 <main+0xaa0>
    80002dea:	b28ff0ef          	jal	80002112 <debug_printf>
    80002dee:	00093783          	ld	a5,0(s2)
    80002df2:	00000517          	auipc	a0,0x0
    80002df6:	52650513          	addi	a0,a0,1318 # 80003318 <main+0x9d0>
    80002dfa:	478c                	lw	a1,8(a5)
    80002dfc:	b16ff0ef          	jal	80002112 <debug_printf>
    80002e00:	4581                	li	a1,0
    80002e02:	00000517          	auipc	a0,0x0
    80002e06:	39e50513          	addi	a0,a0,926 # 800031a0 <main+0x858>
    80002e0a:	b08ff0ef          	jal	80002112 <debug_printf>
    80002e0e:	00093783          	ld	a5,0(s2)
    80002e12:	00000517          	auipc	a0,0x0
    80002e16:	52650513          	addi	a0,a0,1318 # 80003338 <main+0x9f0>
    80002e1a:	47cc                	lw	a1,12(a5)
    80002e1c:	af6ff0ef          	jal	80002112 <debug_printf>
    80002e20:	4585                	li	a1,1
    80002e22:	00000517          	auipc	a0,0x0
    80002e26:	37e50513          	addi	a0,a0,894 # 800031a0 <main+0x858>
    80002e2a:	ae8ff0ef          	jal	80002112 <debug_printf>
    80002e2e:	00093783          	ld	a5,0(s2)
    80002e32:	00000517          	auipc	a0,0x0
    80002e36:	52650513          	addi	a0,a0,1318 # 80003358 <main+0xa10>
    80002e3a:	4b8c                	lw	a1,16(a5)
    80002e3c:	ad6ff0ef          	jal	80002112 <debug_printf>
    80002e40:	45c9                	li	a1,18
    80002e42:	00000517          	auipc	a0,0x0
    80002e46:	35e50513          	addi	a0,a0,862 # 800031a0 <main+0x858>
    80002e4a:	ac8ff0ef          	jal	80002112 <debug_printf>
    80002e4e:	00093583          	ld	a1,0(s2)
    80002e52:	00000517          	auipc	a0,0x0
    80002e56:	52650513          	addi	a0,a0,1318 # 80003378 <main+0xa30>
    80002e5a:	05d1                	addi	a1,a1,20
    80002e5c:	ab6ff0ef          	jal	80002112 <debug_printf>
    80002e60:	00000517          	auipc	a0,0x0
    80002e64:	53850513          	addi	a0,a0,1336 # 80003398 <main+0xa50>
    80002e68:	aaaff0ef          	jal	80002112 <debug_printf>
    80002e6c:	f4442583          	lw	a1,-188(s0)
    80002e70:	00000517          	auipc	a0,0x0
    80002e74:	5b850513          	addi	a0,a0,1464 # 80003428 <main+0xae0>
    80002e78:	a9aff0ef          	jal	80002112 <debug_printf>
    80002e7c:	4595                	li	a1,5
    80002e7e:	00000517          	auipc	a0,0x0
    80002e82:	32250513          	addi	a0,a0,802 # 800031a0 <main+0x858>
    80002e86:	a8cff0ef          	jal	80002112 <debug_printf>
    80002e8a:	415485bb          	subw	a1,s1,s5
    80002e8e:	00000517          	auipc	a0,0x0
    80002e92:	5ba50513          	addi	a0,a0,1466 # 80003448 <main+0xb00>
    80002e96:	a7cff0ef          	jal	80002112 <debug_printf>
    80002e9a:	45b5                	li	a1,13
    80002e9c:	00000517          	auipc	a0,0x0
    80002ea0:	30450513          	addi	a0,a0,772 # 800031a0 <main+0x858>
    80002ea4:	a6eff0ef          	jal	80002112 <debug_printf>
    80002ea8:	f4842583          	lw	a1,-184(s0)
    80002eac:	00000517          	auipc	a0,0x0
    80002eb0:	5bc50513          	addi	a0,a0,1468 # 80003468 <main+0xb20>
    80002eb4:	00001497          	auipc	s1,0x1
    80002eb8:	91448493          	addi	s1,s1,-1772 # 800037c8 <Dhrystones_Per_Second>
    80002ebc:	a56ff0ef          	jal	80002112 <debug_printf>
    80002ec0:	459d                	li	a1,7
    80002ec2:	00000517          	auipc	a0,0x0
    80002ec6:	2de50513          	addi	a0,a0,734 # 800031a0 <main+0x858>
    80002eca:	a48ff0ef          	jal	80002112 <debug_printf>
    80002ece:	f4c42583          	lw	a1,-180(s0)
    80002ed2:	00000517          	auipc	a0,0x0
    80002ed6:	5b650513          	addi	a0,a0,1462 # 80003488 <main+0xb40>
    80002eda:	a38ff0ef          	jal	80002112 <debug_printf>
    80002ede:	4585                	li	a1,1
    80002ee0:	00000517          	auipc	a0,0x0
    80002ee4:	2c050513          	addi	a0,a0,704 # 800031a0 <main+0x858>
    80002ee8:	a2aff0ef          	jal	80002112 <debug_printf>
    80002eec:	f5040593          	addi	a1,s0,-176
    80002ef0:	00000517          	auipc	a0,0x0
    80002ef4:	5b850513          	addi	a0,a0,1464 # 800034a8 <main+0xb60>
    80002ef8:	a1aff0ef          	jal	80002112 <debug_printf>
    80002efc:	00000517          	auipc	a0,0x0
    80002f00:	5cc50513          	addi	a0,a0,1484 # 800034c8 <main+0xb80>
    80002f04:	a0eff0ef          	jal	80002112 <debug_printf>
    80002f08:	f7040593          	addi	a1,s0,-144
    80002f0c:	00000517          	auipc	a0,0x0
    80002f10:	5f450513          	addi	a0,a0,1524 # 80003500 <main+0xbb8>
    80002f14:	9feff0ef          	jal	80002112 <debug_printf>
    80002f18:	00000517          	auipc	a0,0x0
    80002f1c:	60850513          	addi	a0,a0,1544 # 80003520 <main+0xbd8>
    80002f20:	9f2ff0ef          	jal	80002112 <debug_printf>
    80002f24:	00000517          	auipc	a0,0x0
    80002f28:	0fc50513          	addi	a0,a0,252 # 80003020 <main+0x6d8>
    80002f2c:	9e6ff0ef          	jal	80002112 <debug_printf>
    80002f30:	f3843783          	ld	a5,-200(s0)
    80002f34:	000f4737          	lui	a4,0xf4
    80002f38:	2407071b          	addiw	a4,a4,576 # f4240 <buflen.1+0xf4200>
    80002f3c:	02e7873b          	mulw	a4,a5,a4
    80002f40:	8141b683          	ld	a3,-2028(gp) # 800037d8 <User_Time>
    80002f44:	00000517          	auipc	a0,0x0
    80002f48:	61450513          	addi	a0,a0,1556 # 80003558 <main+0xc10>
    80002f4c:	02f6c7b3          	div	a5,a3,a5
    80002f50:	02d74733          	div	a4,a4,a3
    80002f54:	85be                	mv	a1,a5
    80002f56:	00001697          	auipc	a3,0x1
    80002f5a:	86f6bd23          	sd	a5,-1926(a3) # 800037d0 <Microseconds>
    80002f5e:	e098                	sd	a4,0(s1)
    80002f60:	f10ff0ef          	jal	80002670 <printf>
    80002f64:	608c                	ld	a1,0(s1)
    80002f66:	00000517          	auipc	a0,0x0
    80002f6a:	62a50513          	addi	a0,a0,1578 # 80003590 <main+0xc48>
    80002f6e:	f02ff0ef          	jal	80002670 <printf>
    80002f72:	f3040113          	addi	sp,s0,-208
    80002f76:	60ae                	ld	ra,200(sp)
    80002f78:	640e                	ld	s0,192(sp)
    80002f7a:	74ea                	ld	s1,184(sp)
    80002f7c:	794a                	ld	s2,176(sp)
    80002f7e:	79aa                	ld	s3,168(sp)
    80002f80:	7a0a                	ld	s4,160(sp)
    80002f82:	6aea                	ld	s5,152(sp)
    80002f84:	6b4a                	ld	s6,144(sp)
    80002f86:	6baa                	ld	s7,136(sp)
    80002f88:	6c0a                	ld	s8,128(sp)
    80002f8a:	7ce6                	ld	s9,120(sp)
    80002f8c:	7d46                	ld	s10,112(sp)
    80002f8e:	7da6                	ld	s11,104(sp)
    80002f90:	4501                	li	a0,0
    80002f92:	6169                	addi	sp,sp,208
    80002f94:	8082                	ret
    80002f96:	49a5                	li	s3,9
    80002f98:	b185                	j	80002bf8 <main+0x2b0>
    80002f9a:	00000517          	auipc	a0,0x0
    80002f9e:	17650513          	addi	a0,a0,374 # 80003110 <main+0x7c8>
    80002fa2:	eceff0ef          	jal	80002670 <printf>
    80002fa6:	f3843703          	ld	a4,-200(s0)
    80002faa:	00000517          	auipc	a0,0x0
    80002fae:	07650513          	addi	a0,a0,118 # 80003020 <main+0x6d8>
    80002fb2:	0027179b          	slliw	a5,a4,0x2
    80002fb6:	9fb9                	addw	a5,a5,a4
    80002fb8:	0017979b          	slliw	a5,a5,0x1
    80002fbc:	f2f43c23          	sd	a5,-200(s0)
    80002fc0:	eb0ff0ef          	jal	80002670 <printf>
    80002fc4:	82c1a783          	lw	a5,-2004(gp) # 800037f0 <Done>
    80002fc8:	ae078ee3          	beqz	a5,80002ac4 <main+0x17c>
    80002fcc:	b1bd                	j	80002c3a <main+0x2f2>
    80002fce:	00000517          	auipc	a0,0x0
    80002fd2:	0c250513          	addi	a0,a0,194 # 80003090 <main+0x748>
    80002fd6:	93cff0ef          	jal	80002112 <debug_printf>
    80002fda:	b479                	j	80002a68 <main+0x120>
    80002fdc:	1141                	addi	sp,sp,-16
    80002fde:	00000517          	auipc	a0,0x0
    80002fe2:	66a50513          	addi	a0,a0,1642 # 80003648 <main+0xd00>
    80002fe6:	e406                	sd	ra,8(sp)
    80002fe8:	df2ff0ef          	jal	800025da <printstr>
    80002fec:	60a2                	ld	ra,8(sp)
    80002fee:	557d                	li	a0,-1
    80002ff0:	0141                	addi	sp,sp,16
    80002ff2:	8082                	ret
