
mm.riscv:     file format elf64-littleriscv


Disassembly of section .text.init:

0000000080000000 <_start>:
    80000000:	4081                	li	ra,0
    80000002:	4101                	li	sp,0
    80000004:	4181                	li	gp,0
    80000006:	4201                	li	tp,0
    80000008:	4281                	li	t0,0
    8000000a:	4301                	li	t1,0
    8000000c:	4381                	li	t2,0
    8000000e:	4401                	li	s0,0
    80000010:	4481                	li	s1,0
    80000012:	4501                	li	a0,0
    80000014:	4581                	li	a1,0
    80000016:	4601                	li	a2,0
    80000018:	4681                	li	a3,0
    8000001a:	4701                	li	a4,0
    8000001c:	4781                	li	a5,0
    8000001e:	4801                	li	a6,0
    80000020:	4881                	li	a7,0
    80000022:	4901                	li	s2,0
    80000024:	4981                	li	s3,0
    80000026:	4a01                	li	s4,0
    80000028:	4a81                	li	s5,0
    8000002a:	4b01                	li	s6,0
    8000002c:	4b81                	li	s7,0
    8000002e:	4c01                	li	s8,0
    80000030:	4c81                	li	s9,0
    80000032:	4d01                	li	s10,0
    80000034:	4d81                	li	s11,0
    80000036:	4e01                	li	t3,0
    80000038:	4e81                	li	t4,0
    8000003a:	4f01                	li	t5,0
    8000003c:	4f81                	li	t6,0
    8000003e:	62f9                	lui	t0,0x1e
    80000040:	6002829b          	addiw	t0,t0,1536 # 1e600 <buflen.1+0x1e580>
    80000044:	3002a073          	csrs	mstatus,t0
    80000048:	4285                	li	t0,1
    8000004a:	02fe                	slli	t0,t0,0x1f
    8000004c:	0002d863          	bgez	t0,8000005c <_start+0x5c>
    80000050:	4505                	li	a0,1
    80000052:	00001297          	auipc	t0,0x1
    80000056:	faa2a723          	sw	a0,-82(t0) # 80001000 <tohost>
    8000005a:	bfdd                	j	80000050 <_start+0x50>
    8000005c:	00000297          	auipc	t0,0x0
    80000060:	09028293          	addi	t0,t0,144 # 800000ec <_start+0xec>
    80000064:	30529073          	csrw	mtvec,t0
    80000068:	00301073          	fscsr	zero
    8000006c:	f0000053          	fmv.w.x	ft0,zero
    80000070:	f00000d3          	fmv.w.x	ft1,zero
    80000074:	f0000153          	fmv.w.x	ft2,zero
    80000078:	f00001d3          	fmv.w.x	ft3,zero
    8000007c:	f0000253          	fmv.w.x	ft4,zero
    80000080:	f00002d3          	fmv.w.x	ft5,zero
    80000084:	f0000353          	fmv.w.x	ft6,zero
    80000088:	f00003d3          	fmv.w.x	ft7,zero
    8000008c:	f0000453          	fmv.w.x	fs0,zero
    80000090:	f00004d3          	fmv.w.x	fs1,zero
    80000094:	f0000553          	fmv.w.x	fa0,zero
    80000098:	f00005d3          	fmv.w.x	fa1,zero
    8000009c:	f0000653          	fmv.w.x	fa2,zero
    800000a0:	f00006d3          	fmv.w.x	fa3,zero
    800000a4:	f0000753          	fmv.w.x	fa4,zero
    800000a8:	f00007d3          	fmv.w.x	fa5,zero
    800000ac:	f0000853          	fmv.w.x	fa6,zero
    800000b0:	f00008d3          	fmv.w.x	fa7,zero
    800000b4:	f0000953          	fmv.w.x	fs2,zero
    800000b8:	f00009d3          	fmv.w.x	fs3,zero
    800000bc:	f0000a53          	fmv.w.x	fs4,zero
    800000c0:	f0000ad3          	fmv.w.x	fs5,zero
    800000c4:	f0000b53          	fmv.w.x	fs6,zero
    800000c8:	f0000bd3          	fmv.w.x	fs7,zero
    800000cc:	f0000c53          	fmv.w.x	fs8,zero
    800000d0:	f0000cd3          	fmv.w.x	fs9,zero
    800000d4:	f0000d53          	fmv.w.x	fs10,zero
    800000d8:	f0000dd3          	fmv.w.x	fs11,zero
    800000dc:	f0000e53          	fmv.w.x	ft8,zero
    800000e0:	f0000ed3          	fmv.w.x	ft9,zero
    800000e4:	f0000f53          	fmv.w.x	ft10,zero
    800000e8:	f0000fd3          	fmv.w.x	ft11,zero
    800000ec:	00000297          	auipc	t0,0x0
    800000f0:	03c28293          	addi	t0,t0,60 # 80000128 <trap_entry>
    800000f4:	30529073          	csrw	mtvec,t0
    800000f8:	00006197          	auipc	gp,0x6
    800000fc:	ae818193          	addi	gp,gp,-1304 # 80005be0 <__global_pointer$>
    80000100:	00005217          	auipc	tp,0x5
    80000104:	5bf20213          	addi	tp,tp,1471 # 800056bf <_end+0x3f>
    80000108:	fc027213          	andi	tp,tp,-64
    8000010c:	f1402573          	csrr	a0,mhartid
    80000110:	4585                	li	a1,1
    80000112:	00b57063          	bgeu	a0,a1,80000112 <_start+0x112>
    80000116:	00150113          	addi	sp,a0,1
    8000011a:	0146                	slli	sp,sp,0x11
    8000011c:	9112                	add	sp,sp,tp
    8000011e:	01151613          	slli	a2,a0,0x11
    80000122:	9232                	add	tp,tp,a2
    80000124:	1400506f          	j	80005264 <_init>

0000000080000128 <trap_entry>:
    80000128:	716d                	addi	sp,sp,-272
    8000012a:	e406                	sd	ra,8(sp)
    8000012c:	e80a                	sd	sp,16(sp)
    8000012e:	ec0e                	sd	gp,24(sp)
    80000130:	f012                	sd	tp,32(sp)
    80000132:	f416                	sd	t0,40(sp)
    80000134:	f81a                	sd	t1,48(sp)
    80000136:	fc1e                	sd	t2,56(sp)
    80000138:	e0a2                	sd	s0,64(sp)
    8000013a:	e4a6                	sd	s1,72(sp)
    8000013c:	e8aa                	sd	a0,80(sp)
    8000013e:	ecae                	sd	a1,88(sp)
    80000140:	f0b2                	sd	a2,96(sp)
    80000142:	f4b6                	sd	a3,104(sp)
    80000144:	f8ba                	sd	a4,112(sp)
    80000146:	fcbe                	sd	a5,120(sp)
    80000148:	e142                	sd	a6,128(sp)
    8000014a:	e546                	sd	a7,136(sp)
    8000014c:	e94a                	sd	s2,144(sp)
    8000014e:	ed4e                	sd	s3,152(sp)
    80000150:	f152                	sd	s4,160(sp)
    80000152:	f556                	sd	s5,168(sp)
    80000154:	f95a                	sd	s6,176(sp)
    80000156:	fd5e                	sd	s7,184(sp)
    80000158:	e1e2                	sd	s8,192(sp)
    8000015a:	e5e6                	sd	s9,200(sp)
    8000015c:	e9ea                	sd	s10,208(sp)
    8000015e:	edee                	sd	s11,216(sp)
    80000160:	f1f2                	sd	t3,224(sp)
    80000162:	f5f6                	sd	t4,232(sp)
    80000164:	f9fa                	sd	t5,240(sp)
    80000166:	fdfe                	sd	t6,248(sp)
    80000168:	34202573          	csrr	a0,mcause
    8000016c:	341025f3          	csrr	a1,mepc
    80000170:	860a                	mv	a2,sp
    80000172:	6d1040ef          	jal	80005042 <handle_trap>
    80000176:	34151073          	csrw	mepc,a0
    8000017a:	6289                	lui	t0,0x2
    8000017c:	8002829b          	addiw	t0,t0,-2048 # 1800 <buflen.1+0x1780>
    80000180:	3002a073          	csrs	mstatus,t0
    80000184:	60a2                	ld	ra,8(sp)
    80000186:	6142                	ld	sp,16(sp)
    80000188:	61e2                	ld	gp,24(sp)
    8000018a:	7202                	ld	tp,32(sp)
    8000018c:	72a2                	ld	t0,40(sp)
    8000018e:	7342                	ld	t1,48(sp)
    80000190:	73e2                	ld	t2,56(sp)
    80000192:	6406                	ld	s0,64(sp)
    80000194:	64a6                	ld	s1,72(sp)
    80000196:	6546                	ld	a0,80(sp)
    80000198:	65e6                	ld	a1,88(sp)
    8000019a:	7606                	ld	a2,96(sp)
    8000019c:	76a6                	ld	a3,104(sp)
    8000019e:	7746                	ld	a4,112(sp)
    800001a0:	77e6                	ld	a5,120(sp)
    800001a2:	680a                	ld	a6,128(sp)
    800001a4:	68aa                	ld	a7,136(sp)
    800001a6:	694a                	ld	s2,144(sp)
    800001a8:	69ea                	ld	s3,152(sp)
    800001aa:	7a0a                	ld	s4,160(sp)
    800001ac:	7aaa                	ld	s5,168(sp)
    800001ae:	7b4a                	ld	s6,176(sp)
    800001b0:	7bea                	ld	s7,184(sp)
    800001b2:	6c0e                	ld	s8,192(sp)
    800001b4:	6cae                	ld	s9,200(sp)
    800001b6:	6d4e                	ld	s10,208(sp)
    800001b8:	6dee                	ld	s11,216(sp)
    800001ba:	7e0e                	ld	t3,224(sp)
    800001bc:	7eae                	ld	t4,232(sp)
    800001be:	7f4e                	ld	t5,240(sp)
    800001c0:	7fee                	ld	t6,248(sp)
    800001c2:	6151                	addi	sp,sp,272
    800001c4:	30200073          	mret
    800001c8:	0001                	nop

Disassembly of section .text:

0000000080002000 <mm_naive>:
    80002000:	832a                	mv	t1,a0
    80002002:	14050163          	beqz	a0,80002144 <mm_naive+0x144>
    80002006:	7159                	addi	sp,sp,-112
    80002008:	f0a6                	sd	s1,96(sp)
    8000200a:	84ae                	mv	s1,a1
    8000200c:	12058663          	beqz	a1,80002138 <mm_naive+0x138>
    80002010:	ffc67f93          	andi	t6,a2,-4
    80002014:	00381e93          	slli	t4,a6,0x3
    80002018:	e8ce                	sd	s3,80(sp)
    8000201a:	03fe89b3          	mul	s3,t4,t6
    8000201e:	00361293          	slli	t0,a2,0x3
    80002022:	e4d2                	sd	s4,72(sp)
    80002024:	fc5a                	sd	s6,56(sp)
    80002026:	8a36                	mv	s4,a3
    80002028:	8b3e                	mv	s6,a5
    8000202a:	92b6                	add	t0,t0,a3
    8000202c:	00181793          	slli	a5,a6,0x1
    80002030:	76c6                	ld	a3,112(sp)
    80002032:	97c2                	add	a5,a5,a6
    80002034:	e0d6                	sd	s5,64(sp)
    80002036:	8aba                	mv	s5,a4
    80002038:	ecca                	sd	s2,88(sp)
    8000203a:	f85e                	sd	s7,48(sp)
    8000203c:	f462                	sd	s8,40(sp)
    8000203e:	8532                	mv	a0,a2
    80002040:	00581713          	slli	a4,a6,0x5
    80002044:	00481393          	slli	t2,a6,0x4
    80002048:	f4a2                	sd	s0,104(sp)
    8000204a:	f066                	sd	s9,32(sp)
    8000204c:	ec6a                	sd	s10,24(sp)
    8000204e:	e86e                	sd	s11,16(sp)
    80002050:	8c46                	mv	s8,a7
    80002052:	078e                	slli	a5,a5,0x3
    80002054:	4b81                	li	s7,0
    80002056:	4801                	li	a6,0
    80002058:	4f01                	li	t5,0
    8000205a:	490d                	li	s2,3
    8000205c:	003a9613          	slli	a2,s5,0x3
    80002060:	01f80db3          	add	s11,a6,t6
    80002064:	0d8e                	slli	s11,s11,0x3
    80002066:	003b9e13          	slli	t3,s7,0x3
    8000206a:	00381d13          	slli	s10,a6,0x3
    8000206e:	9dd2                	add	s11,s11,s4
    80002070:	9e62                	add	t3,t3,s8
    80002072:	9d52                	add	s10,s10,s4
    80002074:	845a                	mv	s0,s6
    80002076:	4c81                	li	s9,0
    80002078:	e05e                	sd	s7,0(sp)
    8000207a:	e442                	sd	a6,8(sp)
    8000207c:	000e3787          	fld	fa5,0(t3)
    80002080:	0aa97f63          	bgeu	s2,a0,8000213e <mm_naive+0x13e>
    80002084:	f20006d3          	fmv.d.x	fa3,zero
    80002088:	8822                	mv	a6,s0
    8000208a:	85ea                	mv	a1,s10
    8000208c:	22d68653          	fmv.d	fa2,fa3
    80002090:	22d68753          	fmv.d	fa4,fa3
    80002094:	4881                	li	a7,0
    80002096:	01d80bb3          	add	s7,a6,t4
    8000209a:	000bb207          	fld	ft4,0(s7)
    8000209e:	00780bb3          	add	s7,a6,t2
    800020a2:	000bb107          	fld	ft2,0(s7)
    800020a6:	00f80bb3          	add	s7,a6,a5
    800020aa:	0085b287          	fld	ft5,8(a1)
    800020ae:	0105b187          	fld	ft3,16(a1)
    800020b2:	0185b087          	fld	ft1,24(a1)
    800020b6:	2188                	fld	fa0,0(a1)
    800020b8:	00083587          	fld	fa1,0(a6)
    800020bc:	000bb007          	fld	ft0,0(s7)
    800020c0:	0891                	addi	a7,a7,4
    800020c2:	7242f743          	fmadd.d	fa4,ft5,ft4,fa4
    800020c6:	6221f643          	fmadd.d	fa2,ft3,ft2,fa2
    800020ca:	6a00f6c3          	fmadd.d	fa3,ft1,ft0,fa3
    800020ce:	7ab577c3          	fmadd.d	fa5,fa0,fa1,fa5
    800020d2:	02058593          	addi	a1,a1,32
    800020d6:	983a                	add	a6,a6,a4
    800020d8:	fbf8efe3          	bltu	a7,t6,80002096 <mm_naive+0x96>
    800020dc:	02c77753          	fadd.d	fa4,fa4,fa2
    800020e0:	02d77753          	fadd.d	fa4,fa4,fa3
    800020e4:	00affe63          	bgeu	t6,a0,80002100 <mm_naive+0x100>
    800020e8:	00898833          	add	a6,s3,s0
    800020ec:	85ee                	mv	a1,s11
    800020ee:	2190                	fld	fa2,0(a1)
    800020f0:	00083687          	fld	fa3,0(a6)
    800020f4:	05a1                	addi	a1,a1,8
    800020f6:	9876                	add	a6,a6,t4
    800020f8:	7ad677c3          	fmadd.d	fa5,fa2,fa3,fa5
    800020fc:	feb299e3          	bne	t0,a1,800020ee <mm_naive+0xee>
    80002100:	02e7f7d3          	fadd.d	fa5,fa5,fa4
    80002104:	0c85                	addi	s9,s9,1
    80002106:	0421                	addi	s0,s0,8
    80002108:	0e21                	addi	t3,t3,8
    8000210a:	fefe3c27          	fsd	fa5,-8(t3)
    8000210e:	f79497e3          	bne	s1,s9,8000207c <mm_naive+0x7c>
    80002112:	6b82                	ld	s7,0(sp)
    80002114:	6822                	ld	a6,8(sp)
    80002116:	0f05                	addi	t5,t5,1
    80002118:	9bb6                	add	s7,s7,a3
    8000211a:	9856                	add	a6,a6,s5
    8000211c:	92b2                	add	t0,t0,a2
    8000211e:	f5e311e3          	bne	t1,t5,80002060 <mm_naive+0x60>
    80002122:	7426                	ld	s0,104(sp)
    80002124:	6966                	ld	s2,88(sp)
    80002126:	69c6                	ld	s3,80(sp)
    80002128:	6a26                	ld	s4,72(sp)
    8000212a:	6a86                	ld	s5,64(sp)
    8000212c:	7b62                	ld	s6,56(sp)
    8000212e:	7bc2                	ld	s7,48(sp)
    80002130:	7c22                	ld	s8,40(sp)
    80002132:	7c82                	ld	s9,32(sp)
    80002134:	6d62                	ld	s10,24(sp)
    80002136:	6dc2                	ld	s11,16(sp)
    80002138:	7486                	ld	s1,96(sp)
    8000213a:	6165                	addi	sp,sp,112
    8000213c:	8082                	ret
    8000213e:	f2000753          	fmv.d.x	fa4,zero
    80002142:	b74d                	j	800020e4 <mm_naive+0xe4>
    80002144:	8082                	ret

0000000080002146 <mm_cb>:
    80002146:	000e1e37          	lui	t3,0xe1
    8000214a:	47be0e13          	addi	t3,t3,1147 # e147b <buflen.1+0xe13fb>
    8000214e:	23d71337          	lui	t1,0x23d71
    80002152:	0e32                	slli	t3,t3,0xc
    80002154:	a3d30313          	addi	t1,t1,-1475 # 23d70a3d <buflen.1+0x23d709bd>
    80002158:	e15e0e13          	addi	t3,t3,-491
    8000215c:	1306                	slli	t1,t1,0x21
    8000215e:	9372                	add	t1,t1,t3
    80002160:	0265b333          	mulhu	t1,a1,t1
    80002164:	aaaabeb7          	lui	t4,0xaaaab
    80002168:	d2010113          	addi	sp,sp,-736
    8000216c:	aabe8e93          	addi	t4,t4,-1365 # ffffffffaaaaaaab <__global_pointer$+0xffffffff2aaa4ecb>
    80002170:	2c813823          	sd	s0,720(sp)
    80002174:	2c913423          	sd	s1,712(sp)
    80002178:	1580                	addi	s0,sp,736
    8000217a:	2d213023          	sd	s2,704(sp)
    8000217e:	2b313c23          	sd	s3,696(sp)
    80002182:	2b413823          	sd	s4,688(sp)
    80002186:	29813823          	sd	s8,656(sp)
    8000218a:	2c113c23          	sd	ra,728(sp)
    8000218e:	2b513423          	sd	s5,680(sp)
    80002192:	2b613023          	sd	s6,672(sp)
    80002196:	29713c23          	sd	s7,664(sp)
    8000219a:	29913423          	sd	s9,648(sp)
    8000219e:	29a13023          	sd	s10,640(sp)
    800021a2:	27b13c23          	sd	s11,632(sp)
    800021a6:	26813427          	fsd	fs0,616(sp)
    800021aa:	26913027          	fsd	fs1,608(sp)
    800021ae:	25213c27          	fsd	fs2,600(sp)
    800021b2:	25313827          	fsd	fs3,592(sp)
    800021b6:	25413427          	fsd	fs4,584(sp)
    800021ba:	25513027          	fsd	fs5,576(sp)
    800021be:	23613c27          	fsd	fs6,568(sp)
    800021c2:	23713827          	fsd	fs7,560(sp)
    800021c6:	23813427          	fsd	fs8,552(sp)
    800021ca:	23913027          	fsd	fs9,544(sp)
    800021ce:	21a13c27          	fsd	fs10,536(sp)
    800021d2:	21b13827          	fsd	fs11,528(sp)
    800021d6:	020e9e13          	slli	t3,t4,0x20
    800021da:	9e76                	add	t3,t3,t4
    800021dc:	8a2a                	mv	s4,a0
    800021de:	8eb2                	mv	t4,a2
    800021e0:	03ceb3b3          	mulhu	t2,t4,t3
    800021e4:	e8d43823          	sd	a3,-368(s0)
    800021e8:	40658f33          	sub	t5,a1,t1
    800021ec:	001f5f13          	srli	t5,t5,0x1
    800021f0:	937a                	add	t1,t1,t5
    800021f2:	00435493          	srli	s1,t1,0x4
    800021f6:	00149313          	slli	t1,s1,0x1
    800021fa:	9326                	add	t1,t1,s1
    800021fc:	030e                	slli	t1,t1,0x3
    800021fe:	009309b3          	add	s3,t1,s1
    80002202:	03ca36b3          	mulhu	a3,s4,t3
    80002206:	0043df93          	srli	t6,t2,0x4
    8000220a:	eee43023          	sd	a4,-288(s0)
    8000220e:	833a                	mv	t1,a4
    80002210:	001f9f13          	slli	t5,t6,0x1
    80002214:	9f7e                	add	t5,t5,t6
    80002216:	0c800293          	li	t0,200
    8000221a:	006f1393          	slli	t2,t5,0x6
    8000221e:	ec943023          	sd	s1,-320(s0)
    80002222:	8c3e                	mv	s8,a5
    80002224:	0046d713          	srli	a4,a3,0x4
    80002228:	00171693          	slli	a3,a4,0x1
    8000222c:	9736                	add	a4,a4,a3
    8000222e:	025487b3          	mul	a5,s1,t0
    80002232:	00371493          	slli	s1,a4,0x3
    80002236:	6509                	lui	a0,0x2
    80002238:	8946                	mv	s2,a7
    8000223a:	ed343c23          	sd	s3,-296(s0)
    8000223e:	ee943423          	sd	s1,-280(s0)
    80002242:	fff50613          	addi	a2,a0,-1 # 1fff <buflen.1+0x1f7f>
    80002246:	76f9                	lui	a3,0xffffe
    80002248:	0f0e                	slli	t5,t5,0x3
    8000224a:	02748733          	mul	a4,s1,t2
    8000224e:	027988b3          	mul	a7,s3,t2
    80002252:	972a                	add	a4,a4,a0
    80002254:	40e10133          	sub	sp,sp,a4
    80002258:	0808                	addi	a0,sp,16
    8000225a:	9532                	add	a0,a0,a2
    8000225c:	8d75                	and	a0,a0,a3
    8000225e:	02f48733          	mul	a4,s1,a5
    80002262:	98b2                	add	a7,a7,a2
    80002264:	08bd                	addi	a7,a7,15
    80002266:	ff08f893          	andi	a7,a7,-16
    8000226a:	41110133          	sub	sp,sp,a7
    8000226e:	01010893          	addi	a7,sp,16
    80002272:	98b2                	add	a7,a7,a2
    80002274:	00d8f8b3          	and	a7,a7,a3
    80002278:	e7143023          	sd	a7,-416(s0)
    8000227c:	e6a43423          	sd	a0,-408(s0)
    80002280:	9732                	add	a4,a4,a2
    80002282:	073d                	addi	a4,a4,15
    80002284:	9b41                	andi	a4,a4,-16
    80002286:	40e10133          	sub	sp,sp,a4
    8000228a:	0818                	addi	a4,sp,16
    8000228c:	9732                	add	a4,a4,a2
    8000228e:	8f75                	and	a4,a4,a3
    80002290:	eae43823          	sd	a4,-336(s0)
    80002294:	e099                	bnez	s1,8000229a <mm_cb+0x154>
    80002296:	7a30106f          	j	80004238 <mm_cb+0x20f2>
    8000229a:	00131613          	slli	a2,t1,0x1
    8000229e:	00660733          	add	a4,a2,t1
    800022a2:	00371493          	slli	s1,a4,0x3
    800022a6:	4681                	li	a3,0
    800022a8:	4701                	li	a4,0
    800022aa:	000f1a63          	bnez	t5,800022be <mm_cb+0x178>
    800022ae:	ee843683          	ld	a3,-280(s0)
    800022b2:	0761                	addi	a4,a4,24
    800022b4:	fed76de3          	bltu	a4,a3,800022ae <mm_cb+0x168>
    800022b8:	00181e13          	slli	t3,a6,0x1
    800022bc:	a0e5                	j	800023a4 <mm_cb+0x25e>
    800022be:	ee043503          	ld	a0,-288(s0)
    800022c2:	24000b13          	li	s6,576
    800022c6:	00351a93          	slli	s5,a0,0x3
    800022ca:	03c73533          	mulhu	a0,a4,t3
    800022ce:	e9043883          	ld	a7,-368(s0)
    800022d2:	00369993          	slli	s3,a3,0x3
    800022d6:	4b81                	li	s7,0
    800022d8:	99c6                	add	s3,s3,a7
    800022da:	8111                	srli	a0,a0,0x4
    800022dc:	03f50533          	mul	a0,a0,t6
    800022e0:	0c098993          	addi	s3,s3,192
    800022e4:	82ce                	mv	t0,s3
    800022e6:	4d01                	li	s10,0
    800022e8:	03cbb8b3          	mulhu	a7,s7,t3
    800022ec:	0048d893          	srli	a7,a7,0x4
    800022f0:	98aa                	add	a7,a7,a0
    800022f2:	00389c93          	slli	s9,a7,0x3
    800022f6:	9cc6                	add	s9,s9,a7
    800022f8:	e6843883          	ld	a7,-408(s0)
    800022fc:	0ca6                	slli	s9,s9,0x9
    800022fe:	9cc6                	add	s9,s9,a7
    80002300:	f4028893          	addi	a7,t0,-192
    80002304:	8366                	mv	t1,s9
    80002306:	0008b087          	fld	ft1,0(a7)
    8000230a:	0088b007          	fld	ft0,8(a7)
    8000230e:	0108b507          	fld	fa0,16(a7)
    80002312:	0188b587          	fld	fa1,24(a7)
    80002316:	0208b607          	fld	fa2,32(a7)
    8000231a:	0288b687          	fld	fa3,40(a7)
    8000231e:	0308b707          	fld	fa4,48(a7)
    80002322:	0388b787          	fld	fa5,56(a7)
    80002326:	00133027          	fsd	ft1,0(t1)
    8000232a:	00033427          	fsd	ft0,8(t1)
    8000232e:	00a33827          	fsd	fa0,16(t1)
    80002332:	00b33c27          	fsd	fa1,24(t1)
    80002336:	02c33027          	fsd	fa2,32(t1)
    8000233a:	02d33427          	fsd	fa3,40(t1)
    8000233e:	02e33827          	fsd	fa4,48(t1)
    80002342:	02f33c27          	fsd	fa5,56(t1)
    80002346:	04088893          	addi	a7,a7,64
    8000234a:	04030313          	addi	t1,t1,64
    8000234e:	fb129ce3          	bne	t0,a7,80002306 <mm_cb+0x1c0>
    80002352:	0d61                	addi	s10,s10,24
    80002354:	0c0c8c93          	addi	s9,s9,192
    80002358:	92d6                	add	t0,t0,s5
    8000235a:	fb6d13e3          	bne	s10,s6,80002300 <mm_cb+0x1ba>
    8000235e:	0be1                	addi	s7,s7,24
    80002360:	f9ebe0e3          	bltu	s7,t5,800022e0 <mm_cb+0x19a>
    80002364:	ee843503          	ld	a0,-280(s0)
    80002368:	0761                	addi	a4,a4,24
    8000236a:	96a6                	add	a3,a3,s1
    8000236c:	f4a76fe3          	bltu	a4,a0,800022ca <mm_cb+0x184>
    80002370:	f40f04e3          	beqz	t5,800022b8 <mm_cb+0x172>
    80002374:	00181e13          	slli	t3,a6,0x1
    80002378:	010e0733          	add	a4,t3,a6
    8000237c:	00371613          	slli	a2,a4,0x3
    80002380:	4681                	li	a3,0
    80002382:	4701                	li	a4,0
    80002384:	4561                	li	a0,24
    80002386:	0ab56ae3          	bltu	a0,a1,80002c3a <mm_cb+0xaf4>
    8000238a:	0761                	addi	a4,a4,24
    8000238c:	96b2                	add	a3,a3,a2
    8000238e:	ffe76ce3          	bltu	a4,t5,80002386 <mm_cb+0x240>
    80002392:	ee843703          	ld	a4,-280(s0)
    80002396:	e319                	bnez	a4,8000239c <mm_cb+0x256>
    80002398:	6a90106f          	j	80004240 <mm_cb+0x20fa>
    8000239c:	ee043703          	ld	a4,-288(s0)
    800023a0:	00171613          	slli	a2,a4,0x1
    800023a4:	6018                	ld	a4,0(s0)
    800023a6:	4681                	li	a3,0
    800023a8:	4561                	li	a0,24
    800023aa:	00171993          	slli	s3,a4,0x1
    800023ae:	974e                	add	a4,a4,s3
    800023b0:	00371493          	slli	s1,a4,0x3
    800023b4:	6018                	ld	a4,0(s0)
    800023b6:	070e                	slli	a4,a4,0x3
    800023b8:	e4e43423          	sd	a4,-440(s0)
    800023bc:	4701                	li	a4,0
    800023be:	16b56fe3          	bltu	a0,a1,80002d3c <mm_cb+0xbf6>
    800023c2:	ee843883          	ld	a7,-280(s0)
    800023c6:	0761                	addi	a4,a4,24
    800023c8:	96a6                	add	a3,a3,s1
    800023ca:	ff176ae3          	bltu	a4,a7,800023be <mm_cb+0x278>
    800023ce:	aaaab737          	lui	a4,0xaaaab
    800023d2:	aab70713          	addi	a4,a4,-1365 # ffffffffaaaaaaab <__global_pointer$+0xffffffff2aaa4ecb>
    800023d6:	02071513          	slli	a0,a4,0x20
    800023da:	953a                	add	a0,a0,a4
    800023dc:	02aeb6b3          	mulhu	a3,t4,a0
    800023e0:	000e18b7          	lui	a7,0xe1
    800023e4:	47b88893          	addi	a7,a7,1147 # e147b <buflen.1+0xe13fb>
    800023e8:	23d71737          	lui	a4,0x23d71
    800023ec:	08b2                	slli	a7,a7,0xc
    800023ee:	a3d70713          	addi	a4,a4,-1475 # 23d70a3d <buflen.1+0x23d709bd>
    800023f2:	e1588893          	addi	a7,a7,-491
    800023f6:	1706                	slli	a4,a4,0x21
    800023f8:	9746                	add	a4,a4,a7
    800023fa:	ee043303          	ld	t1,-288(s0)
    800023fe:	02e5b733          	mulhu	a4,a1,a4
    80002402:	0046d493          	srli	s1,a3,0x4
    80002406:	00149693          	slli	a3,s1,0x1
    8000240a:	96a6                	add	a3,a3,s1
    8000240c:	068e                	slli	a3,a3,0x3
    8000240e:	40de82b3          	sub	t0,t4,a3
    80002412:	ccccd6b7          	lui	a3,0xccccd
    80002416:	ccd68693          	addi	a3,a3,-819 # ffffffffcccccccd <__global_pointer$+0xffffffff4ccc70ed>
    8000241a:	02069893          	slli	a7,a3,0x20
    8000241e:	00d88ab3          	add	s5,a7,a3
    80002422:	40e586b3          	sub	a3,a1,a4
    80002426:	8285                	srli	a3,a3,0x1
    80002428:	02a2b8b3          	mulhu	a7,t0,a0
    8000242c:	9736                	add	a4,a4,a3
    8000242e:	00475513          	srli	a0,a4,0x4
    80002432:	00151713          	slli	a4,a0,0x1
    80002436:	972a                	add	a4,a4,a0
    80002438:	070e                	slli	a4,a4,0x3
    8000243a:	972a                	add	a4,a4,a0
    8000243c:	40e58533          	sub	a0,a1,a4
    80002440:	006f84b3          	add	s1,t6,t1
    80002444:	961a                	add	a2,a2,t1
    80002446:	03553ab3          	mulhu	s5,a0,s5
    8000244a:	0028d713          	srli	a4,a7,0x2
    8000244e:	00149893          	slli	a7,s1,0x1
    80002452:	94c6                	add	s1,s1,a7
    80002454:	00043883          	ld	a7,0(s0)
    80002458:	00171693          	slli	a3,a4,0x1
    8000245c:	96ba                	add	a3,a3,a4
    8000245e:	00489b13          	slli	s6,a7,0x4
    80002462:	889a                	mv	a7,t1
    80002464:	e9043303          	ld	t1,-368(s0)
    80002468:	02e80733          	mul	a4,a6,a4
    8000246c:	e4543c23          	sd	t0,-424(s0)
    80002470:	00730d33          	add	s10,t1,t2
    80002474:	00469393          	slli	t2,a3,0x4
    80002478:	002ad693          	srli	a3,s5,0x2
    8000247c:	ffcafa93          	andi	s5,s5,-4
    80002480:	00da82b3          	add	t0,s5,a3
    80002484:	6014                	ld	a3,0(s0)
    80002486:	049a                	slli	s1,s1,0x6
    80002488:	01690ab3          	add	s5,s2,s6
    8000248c:	00d98bb3          	add	s7,s3,a3
    80002490:	405506b3          	sub	a3,a0,t0
    80002494:	ded43423          	sd	a3,-536(s0)
    80002498:	00329693          	slli	a3,t0,0x3
    8000249c:	e2d43823          	sd	a3,-464(s0)
    800024a0:	00171693          	slli	a3,a4,0x1
    800024a4:	96ba                	add	a3,a3,a4
    800024a6:	00469713          	slli	a4,a3,0x4
    800024aa:	dae43823          	sd	a4,-592(s0)
    800024ae:	01a38733          	add	a4,t2,s10
    800024b2:	dee43023          	sd	a4,-544(s0)
    800024b6:	00930733          	add	a4,t1,s1
    800024ba:	dce43823          	sd	a4,-560(s0)
    800024be:	00fa8733          	add	a4,s5,a5
    800024c2:	eae43423          	sd	a4,-344(s0)
    800024c6:	00361713          	slli	a4,a2,0x3
    800024ca:	dae43c23          	sd	a4,-584(s0)
    800024ce:	00661713          	slli	a4,a2,0x6
    800024d2:	dae43423          	sd	a4,-600(s0)
    800024d6:	030f0733          	mul	a4,t5,a6
    800024da:	9e42                	add	t3,t3,a6
    800024dc:	e6543c23          	sd	t0,-392(s0)
    800024e0:	004e1293          	slli	t0,t3,0x4
    800024e4:	d7343c23          	sd	s3,-648(s0)
    800024e8:	d7443823          	sd	s4,-656(s0)
    800024ec:	ea043023          	sd	zero,-352(s0)
    800024f0:	e8043023          	sd	zero,-384(s0)
    800024f4:	d9f43023          	sd	t6,-640(s0)
    800024f8:	e2a43023          	sd	a0,-480(s0)
    800024fc:	070e                	slli	a4,a4,0x3
    800024fe:	9762                	add	a4,a4,s8
    80002500:	e4e43023          	sd	a4,-448(s0)
    80002504:	006e1713          	slli	a4,t3,0x6
    80002508:	dae43023          	sd	a4,-608(s0)
    8000250c:	006b9713          	slli	a4,s7,0x6
    80002510:	e8e43c23          	sd	a4,-360(s0)
    80002514:	003e9713          	slli	a4,t4,0x3
    80002518:	971a                	add	a4,a4,t1
    8000251a:	dce43c23          	sd	a4,-552(s0)
    8000251e:	00389713          	slli	a4,a7,0x3
    80002522:	e4e43823          	sd	a4,-432(s0)
    80002526:	00f90733          	add	a4,s2,a5
    8000252a:	97e2                	add	a5,a5,s8
    8000252c:	dcf43423          	sd	a5,-568(s0)
    80002530:	00589793          	slli	a5,a7,0x5
    80002534:	e2f43c23          	sd	a5,-456(s0)
    80002538:	601c                	ld	a5,0(s0)
    8000253a:	eae43c23          	sd	a4,-328(s0)
    8000253e:	e9e43423          	sd	t5,-376(s0)
    80002542:	078a                	slli	a5,a5,0x2
    80002544:	dcf43023          	sd	a5,-576(s0)
    80002548:	e0543c23          	sd	t0,-488(s0)
    8000254c:	edd43823          	sd	t4,-304(s0)
    80002550:	89ca                	mv	s3,s2
    80002552:	00489d93          	slli	s11,a7,0x4
    80002556:	8962                	mv	s2,s8
    80002558:	00481493          	slli	s1,a6,0x4
    8000255c:	00581b93          	slli	s7,a6,0x5
    80002560:	4ae5                	li	s5,25
    80002562:	8b6a                	mv	s6,s10
    80002564:	8a2e                	mv	s4,a1
    80002566:	ed043423          	sd	a6,-312(s0)
    8000256a:	00381c13          	slli	s8,a6,0x3
    8000256e:	47e1                	li	a5,24
    80002570:	5b47f263          	bgeu	a5,s4,80002b14 <mm_cb+0x9ce>
    80002574:	aaaab737          	lui	a4,0xaaaab
    80002578:	aab70713          	addi	a4,a4,-1365 # ffffffffaaaaaaab <__global_pointer$+0xffffffff2aaa4ecb>
    8000257c:	02071793          	slli	a5,a4,0x20
    80002580:	97ba                	add	a5,a5,a4
    80002582:	e8043703          	ld	a4,-384(s0)
    80002586:	4301                	li	t1,0
    80002588:	02f737b3          	mulhu	a5,a4,a5
    8000258c:	e4043703          	ld	a4,-448(s0)
    80002590:	0047dd13          	srli	s10,a5,0x4
    80002594:	ec043783          	ld	a5,-320(s0)
    80002598:	02fd07b3          	mul	a5,s10,a5
    8000259c:	e6f43823          	sd	a5,-400(s0)
    800025a0:	e8843783          	ld	a5,-376(s0)
    800025a4:	0a0783e3          	beqz	a5,80002e4a <mm_cb+0xd04>
    800025a8:	000e17b7          	lui	a5,0xe1
    800025ac:	47b78793          	addi	a5,a5,1147 # e147b <buflen.1+0xe13fb>
    800025b0:	23d716b7          	lui	a3,0x23d71
    800025b4:	07b2                	slli	a5,a5,0xc
    800025b6:	a3d68693          	addi	a3,a3,-1475 # 23d70a3d <buflen.1+0x23d709bd>
    800025ba:	1686                	slli	a3,a3,0x21
    800025bc:	aaaab637          	lui	a2,0xaaaab
    800025c0:	e1578793          	addi	a5,a5,-491
    800025c4:	aab60613          	addi	a2,a2,-1365 # ffffffffaaaaaaab <__global_pointer$+0xffffffff2aaa4ecb>
    800025c8:	97b6                	add	a5,a5,a3
    800025ca:	d8f43c23          	sd	a5,-616(s0)
    800025ce:	02061793          	slli	a5,a2,0x20
    800025d2:	97b2                	add	a5,a5,a2
    800025d4:	d8f43823          	sd	a5,-624(s0)
    800025d8:	6785                	lui	a5,0x1
    800025da:	38878793          	addi	a5,a5,904 # 1388 <buflen.1+0x1308>
    800025de:	d8f43423          	sd	a5,-632(s0)
    800025e2:	d8043783          	ld	a5,-640(s0)
    800025e6:	6685                	lui	a3,0x1
    800025e8:	2c068693          	addi	a3,a3,704 # 12c0 <buflen.1+0x1240>
    800025ec:	02fd07b3          	mul	a5,s10,a5
    800025f0:	85ca                	mv	a1,s2
    800025f2:	854e                	mv	a0,s3
    800025f4:	e2d43423          	sd	a3,-472(s0)
    800025f8:	e1843823          	sd	s8,-496(s0)
    800025fc:	e0943423          	sd	s1,-504(s0)
    80002600:	e1743023          	sd	s7,-512(s0)
    80002604:	865a                	mv	a2,s6
    80002606:	891a                	mv	s2,t1
    80002608:	89ba                	mv	s3,a4
    8000260a:	def43c23          	sd	a5,-520(s0)
    8000260e:	d9843783          	ld	a5,-616(s0)
    80002612:	eb043703          	ld	a4,-336(s0)
    80002616:	d7a43423          	sd	s10,-664(s0)
    8000261a:	02f936b3          	mulhu	a3,s2,a5
    8000261e:	e7043783          	ld	a5,-400(s0)
    80002622:	d7b43023          	sd	s11,-672(s0)
    80002626:	4301                	li	t1,0
    80002628:	d5243c23          	sd	s2,-680(s0)
    8000262c:	d5343823          	sd	s3,-688(s0)
    80002630:	8d32                	mv	s10,a2
    80002632:	d5443423          	sd	s4,-696(s0)
    80002636:	8dae                	mv	s11,a1
    80002638:	8c2a                	mv	s8,a0
    8000263a:	40d90833          	sub	a6,s2,a3
    8000263e:	00185813          	srli	a6,a6,0x1
    80002642:	96c2                	add	a3,a3,a6
    80002644:	0046dc93          	srli	s9,a3,0x4
    80002648:	00fc8bb3          	add	s7,s9,a5
    8000264c:	e2843783          	ld	a5,-472(s0)
    80002650:	02fb8bb3          	mul	s7,s7,a5
    80002654:	9bba                	add	s7,s7,a4
    80002656:	97de                	add	a5,a5,s7
    80002658:	def43823          	sd	a5,-528(s0)
    8000265c:	d8843783          	ld	a5,-632(s0)
    80002660:	00fb8b33          	add	s6,s7,a5
    80002664:	d9043783          	ld	a5,-624(s0)
    80002668:	ec043703          	ld	a4,-320(s0)
    8000266c:	d2643c23          	sd	t1,-712(s0)
    80002670:	02f337b3          	mulhu	a5,t1,a5
    80002674:	0c8b8493          	addi	s1,s7,200
    80002678:	8391                	srli	a5,a5,0x4
    8000267a:	02e78e33          	mul	t3,a5,a4
    8000267e:	df843703          	ld	a4,-520(s0)
    80002682:	97ba                	add	a5,a5,a4
    80002684:	00379713          	slli	a4,a5,0x3
    80002688:	973e                	add	a4,a4,a5
    8000268a:	e6843783          	ld	a5,-408(s0)
    8000268e:	0726                	slli	a4,a4,0x9
    80002690:	973e                	add	a4,a4,a5
    80002692:	e2843783          	ld	a5,-472(s0)
    80002696:	9e66                	add	t3,t3,s9
    80002698:	0c070593          	addi	a1,a4,192
    8000269c:	02fe0e33          	mul	t3,t3,a5
    800026a0:	e6043783          	ld	a5,-416(s0)
    800026a4:	d4e43023          	sd	a4,-704(s0)
    800026a8:	01c78933          	add	s2,a5,t3
    800026ac:	0c890993          	addi	s3,s2,200
    800026b0:	f4058693          	addi	a3,a1,-192
    800026b4:	f3848613          	addi	a2,s1,-200
    800026b8:	854a                	mv	a0,s2
    800026ba:	221c                	fld	fa5,0(a2)
    800026bc:	02063a07          	fld	fs4,32(a2)
    800026c0:	0c863107          	fld	ft2,200(a2)
    800026c4:	f2f43427          	fsd	fa5,-216(s0)
    800026c8:	261c                	fld	fa5,8(a2)
    800026ca:	0d063087          	fld	ft1,208(a2)
    800026ce:	0d863007          	fld	ft0,216(a2)
    800026d2:	f2f43027          	fsd	fa5,-224(s0)
    800026d6:	2a1c                	fld	fa5,16(a2)
    800026d8:	3268                	fld	fa0,224(a2)
    800026da:	0e863f07          	fld	ft10,232(a2)
    800026de:	f0f43c27          	fsd	fa5,-232(s0)
    800026e2:	2e1c                	fld	fa5,24(a2)
    800026e4:	19063587          	fld	fa1,400(a2)
    800026e8:	19863287          	fld	ft5,408(a2)
    800026ec:	f0f43827          	fsd	fa5,-240(s0)
    800026f0:	1a063207          	fld	ft4,416(a2)
    800026f4:	1a863187          	fld	ft3,424(a2)
    800026f8:	1b063e87          	fld	ft9,432(a2)
    800026fc:	25863607          	fld	fa2,600(a2)
    80002700:	26063687          	fld	fa3,608(a2)
    80002704:	26863707          	fld	fa4,616(a2)
    80002708:	27063787          	fld	fa5,624(a2)
    8000270c:	27863e07          	fld	ft8,632(a2)
    80002710:	234a0d53          	fmv.d	fs10,fs4
    80002714:	87aa                	mv	a5,a0
    80002716:	8a36                	mv	s4,a3
    80002718:	000a3907          	fld	fs2,0(s4)
    8000271c:	0007bc07          	fld	fs8,0(a5)
    80002720:	f2843307          	fld	ft6,-216(s0)
    80002724:	0087bb87          	fld	fs7,8(a5)
    80002728:	0107ba87          	fld	fs5,16(a5)
    8000272c:	338978c3          	fmadd.d	fa7,fs2,fs8,ft6
    80002730:	f2043307          	fld	ft6,-224(s0)
    80002734:	180a3487          	fld	fs1,384(s4)
    80002738:	240a3407          	fld	fs0,576(s4)
    8000273c:	33797843          	fmadd.d	fa6,fs2,fs7,ft6
    80002740:	f1843307          	fld	ft6,-232(s0)
    80002744:	0c0a3f87          	fld	ft11,192(s4)
    80002748:	0187ba07          	fld	fs4,24(a5)
    8000274c:	335973c3          	fmadd.d	ft7,fs2,fs5,ft6
    80002750:	f1043307          	fld	ft6,-240(s0)
    80002754:	0bfbf0c3          	fmadd.d	ft1,fs7,ft11,ft1
    80002758:	2a9bf2c3          	fmadd.d	ft5,fs7,fs1,ft5
    8000275c:	6a8bfbc3          	fmadd.d	fs7,fs7,fs0,fa3
    80002760:	0207b987          	fld	fs3,32(a5)
    80002764:	33497343          	fmadd.d	ft6,fs2,fs4,ft6
    80002768:	03faf043          	fmadd.d	ft0,fs5,ft11,ft0
    8000276c:	53fa7543          	fmadd.d	fa0,fs4,ft11,fa0
    80002770:	229af243          	fmadd.d	ft4,fs5,fs1,ft4
    80002774:	1a9a71c3          	fmadd.d	ft3,fs4,fs1,ft3
    80002778:	728afac3          	fmadd.d	fs5,fs5,fs0,fa4
    8000277c:	7a8a7a43          	fmadd.d	fs4,fs4,fs0,fa5
    80002780:	248a3b07          	fld	fs6,584(s4)
    80002784:	2bf4                	fld	fa3,208(a5)
    80002786:	d3397943          	fmadd.d	fs2,fs2,fs3,fs10
    8000278a:	13fc7143          	fmadd.d	ft2,fs8,ft11,ft2
    8000278e:	5a9c75c3          	fmadd.d	fa1,fs8,fs1,fa1
    80002792:	f3f9ffc3          	fmadd.d	ft11,fs3,ft11,ft10
    80002796:	628c7c43          	fmadd.d	fs8,fs8,fs0,fa2
    8000279a:	ea99ff43          	fmadd.d	ft10,fs3,fs1,ft9
    8000279e:	008a3487          	fld	fs1,8(s4)
    800027a2:	188a3e87          	fld	ft9,392(s4)
    800027a6:	e289f9c3          	fmadd.d	fs3,fs3,fs0,ft8
    800027aa:	0c8a3407          	fld	fs0,200(s4)
    800027ae:	2ff8                	fld	fa4,216(a5)
    800027b0:	33fc                	fld	fa5,224(a5)
    800027b2:	82d4f843          	fmadd.d	fa6,fs1,fa3,fa6
    800027b6:	0a86f0c3          	fmadd.d	ft1,fa3,fs0,ft1
    800027ba:	2bd6f2c3          	fmadd.d	ft5,fa3,ft9,ft5
    800027be:	bb66f6c3          	fmadd.d	fa3,fa3,fs6,fs7
    800027c2:	27f0                	fld	fa2,200(a5)
    800027c4:	0e87be07          	fld	ft8,232(a5)
    800027c8:	02877043          	fmadd.d	ft0,fa4,fs0,ft0
    800027cc:	5287f543          	fmadd.d	fa0,fa5,fs0,fa0
    800027d0:	3ae4f3c3          	fmadd.d	ft7,fs1,fa4,ft7
    800027d4:	32f4f343          	fmadd.d	ft6,fs1,fa5,ft6
    800027d8:	23d77243          	fmadd.d	ft4,fa4,ft9,ft4
    800027dc:	1bd7f1c3          	fmadd.d	ft3,fa5,ft9,ft3
    800027e0:	ab677743          	fmadd.d	fa4,fa4,fs6,fs5
    800027e4:	a367f7c3          	fmadd.d	fa5,fa5,fs6,fs4
    800027e8:	1987bb87          	fld	fs7,408(a5)
    800027ec:	8ac4f8c3          	fmadd.d	fa7,fs1,fa2,fa7
    800027f0:	93c4f4c3          	fmadd.d	fs1,fs1,ft8,fs2
    800027f4:	250a3907          	fld	fs2,592(s4)
    800027f8:	1a87ba87          	fld	fs5,424(a5)
    800027fc:	12867143          	fmadd.d	ft2,fa2,fs0,ft2
    80002800:	5bd675c3          	fmadd.d	fa1,fa2,ft9,fa1
    80002804:	fa8e7443          	fmadd.d	fs0,ft8,fs0,ft11
    80002808:	c3667643          	fmadd.d	fa2,fa2,fs6,fs8
    8000280c:	f3de7ec3          	fmadd.d	ft9,ft8,ft9,ft10
    80002810:	9b6e7e43          	fmadd.d	ft8,ft8,fs6,fs3
    80002814:	1a07bb07          	fld	fs6,416(a5)
    80002818:	6b2bf6c3          	fmadd.d	fa3,fs7,fs2,fa3
    8000281c:	010a3f87          	fld	ft11,16(s4)
    80002820:	732b7743          	fmadd.d	fa4,fs6,fs2,fa4
    80002824:	7b2af7c3          	fmadd.d	fa5,fs5,fs2,fa5
    80002828:	1907bc07          	fld	fs8,400(a5)
    8000282c:	335ff343          	fmadd.d	ft6,ft11,fs5,ft6
    80002830:	1b07ba07          	fld	fs4,432(a5)
    80002834:	0d0a3f07          	fld	ft10,208(s4)
    80002838:	8b8ff8c3          	fmadd.d	fa7,ft11,fs8,fa7
    8000283c:	3b6ff3c3          	fmadd.d	ft7,ft11,fs6,ft7
    80002840:	f0d43427          	fsd	fa3,-248(s0)
    80002844:	190a3987          	fld	fs3,400(s4)
    80002848:	53eafcc3          	fmadd.d	fs9,fs5,ft10,fa0
    8000284c:	f0e43027          	fsd	fa4,-256(s0)
    80002850:	837ff843          	fmadd.d	fa6,ft11,fs7,fa6
    80002854:	2707b507          	fld	fa0,624(a5)
    80002858:	4b4fffc3          	fmadd.d	ft11,ft11,fs4,fs1
    8000285c:	eef43c27          	fsd	fa5,-264(s0)
    80002860:	018a3787          	fld	fa5,24(s4)
    80002864:	03eb74c3          	fmadd.d	fs1,fs6,ft10,ft0
    80002868:	1b3af1c3          	fmadd.d	ft3,fs5,fs3,ft3
    8000286c:	2687b007          	fld	ft0,616(a5)
    80002870:	2587ba87          	fld	fs5,600(a5)
    80002874:	32a7f343          	fmadd.d	ft6,fa5,fa0,ft6
    80002878:	0bebf0c3          	fmadd.d	ft1,fs7,ft10,ft1
    8000287c:	2b3bf2c3          	fmadd.d	ft5,fs7,fs3,ft5
    80002880:	233b7243          	fmadd.d	ft4,fs6,fs3,ft4
    80002884:	2787bb87          	fld	fs7,632(a5)
    80002888:	eb3a7b43          	fmadd.d	fs6,fs4,fs3,ft9
    8000288c:	2607be87          	fld	ft9,608(a5)
    80002890:	8b57f8c3          	fmadd.d	fa7,fa5,fs5,fa7
    80002894:	3a07f3c3          	fmadd.d	ft7,fa5,ft0,ft7
    80002898:	632c7dc3          	fmadd.d	fs11,fs8,fs2,fa2
    8000289c:	13ec7143          	fmadd.d	ft2,fs8,ft10,ft2
    800028a0:	5b3c75c3          	fmadd.d	fa1,fs8,fs3,fa1
    800028a4:	83d7f843          	fmadd.d	fa6,fa5,ft9,fa6
    800028a8:	020a3c07          	fld	fs8,32(s4)
    800028ac:	fb77f7c3          	fmadd.d	fa5,fa5,fs7,ft11
    800028b0:	3387bf87          	fld	ft11,824(a5)
    800028b4:	e32a7643          	fmadd.d	fa2,fs4,fs2,ft8
    800028b8:	43ea7f43          	fmadd.d	ft10,fs4,ft10,fs0
    800028bc:	3307b907          	fld	fs2,816(a5)
    800028c0:	3207ba07          	fld	fs4,800(a5)
    800028c4:	33fc7343          	fmadd.d	ft6,fs8,ft11,ft6
    800028c8:	3287b987          	fld	fs3,808(a5)
    800028cc:	3407b407          	fld	fs0,832(a5)
    800028d0:	8b4c78c3          	fmadd.d	fa7,fs8,fs4,fa7
    800028d4:	3b2c73c3          	fmadd.d	ft7,fs8,fs2,ft7
    800028d8:	028a3d07          	fld	fs10,40(s4)
    800028dc:	833c7843          	fmadd.d	fa6,fs8,fs3,fa6
    800028e0:	7a8c7c43          	fmadd.d	fs8,fs8,fs0,fa5
    800028e4:	4007b787          	fld	fa5,1024(a5)
    800028e8:	3f87b707          	fld	fa4,1016(a5)
    800028ec:	eec43827          	fsd	fa2,-272(s0)
    800028f0:	32fd7343          	fmadd.d	ft6,fs10,fa5,ft6
    800028f4:	3e87b607          	fld	fa2,1000(a5)
    800028f8:	3aed73c3          	fmadd.d	ft7,fs10,fa4,ft7
    800028fc:	3f07b687          	fld	fa3,1008(a5)
    80002900:	8acd78c3          	fmadd.d	fa7,fs10,fa2,fa7
    80002904:	4087be07          	fld	ft8,1032(a5)
    80002908:	030a0a13          	addi	s4,s4,48
    8000290c:	f0643827          	fsd	ft6,-240(s0)
    80002910:	0a8a3307          	fld	ft6,168(s4)
    80002914:	f0743c27          	fsd	ft7,-232(s0)
    80002918:	168a3387          	fld	ft7,360(s4)
    8000291c:	4a6074c3          	fmadd.d	fs1,ft0,ft6,fs1
    80002920:	126af143          	fmadd.d	ft2,fs5,ft6,ft2
    80002924:	0a6ef0c3          	fmadd.d	ft1,ft9,ft6,ft1
    80002928:	f3143427          	fsd	fa7,-216(s0)
    8000292c:	82dd78c3          	fmadd.d	fa7,fs10,fa3,fa6
    80002930:	f0843807          	fld	fa6,-248(s0)
    80002934:	c3cd7d43          	fmadd.d	fs10,fs10,ft8,fs8
    80002938:	ca657c43          	fmadd.d	fs8,fa0,ft6,fs9
    8000293c:	f26bfcc3          	fmadd.d	fs9,fs7,ft6,ft10
    80002940:	228a3307          	fld	ft6,552(s4)
    80002944:	5a7af5c3          	fmadd.d	fa1,fs5,ft7,fa1
    80002948:	2a7ef2c3          	fmadd.d	ft5,ft9,ft7,ft5
    8000294c:	22707243          	fmadd.d	ft4,ft0,ft7,ft4
    80002950:	1a7571c3          	fmadd.d	ft3,fa0,ft7,ft3
    80002954:	b27bf3c3          	fmadd.d	ft7,fs7,ft7,fs6
    80002958:	da6afb43          	fmadd.d	fs6,fs5,ft6,fs11
    8000295c:	826efac3          	fmadd.d	fs5,ft9,ft6,fa6
    80002960:	f0043807          	fld	fa6,-256(s0)
    80002964:	f3143027          	fsd	fa7,-224(s0)
    80002968:	0b0a3887          	fld	fa7,176(s4)
    8000296c:	82607f43          	fmadd.d	ft10,ft0,ft6,fa6
    80002970:	ef843007          	fld	ft0,-264(s0)
    80002974:	131a7143          	fmadd.d	ft2,fs4,fa7,ft2
    80002978:	0b19f0c3          	fmadd.d	ft1,fs3,fa7,ft1
    8000297c:	02657543          	fmadd.d	fa0,fa0,ft6,ft0
    80002980:	ef043007          	fld	ft0,-272(s0)
    80002984:	170a3e87          	fld	ft9,368(s4)
    80002988:	230a3807          	fld	fa6,560(s4)
    8000298c:	026bf343          	fmadd.d	ft6,fs7,ft6,ft0
    80002990:	5bda75c3          	fmadd.d	fa1,fs4,ft9,fa1
    80002994:	4b197043          	fmadd.d	ft0,fs2,fa7,fs1
    80002998:	2bd9f2c3          	fmadd.d	ft5,fs3,ft9,ft5
    8000299c:	c31ff4c3          	fmadd.d	fs1,ft11,fa7,fs8
    800029a0:	23d97243          	fmadd.d	ft4,fs2,ft9,ft4
    800029a4:	1bdff1c3          	fmadd.d	ft3,ft11,ft9,ft3
    800029a8:	f3097943          	fmadd.d	fs2,fs2,fa6,ft10
    800029ac:	530fffc3          	fmadd.d	ft11,ft11,fa6,fa0
    800029b0:	3bd47ec3          	fmadd.d	ft9,fs0,ft9,ft7
    800029b4:	b30a7a43          	fmadd.d	fs4,fs4,fa6,fs6
    800029b8:	ab09f9c3          	fmadd.d	fs3,fs3,fa6,fs5
    800029bc:	cb1478c3          	fmadd.d	fa7,fs0,fa7,fs9
    800029c0:	33047843          	fmadd.d	fa6,fs0,fa6,ft6
    800029c4:	0b8a3f07          	fld	ft10,184(s4)
    800029c8:	178a3387          	fld	ft7,376(s4)
    800029cc:	238a3307          	fld	ft6,568(s4)
    800029d0:	13e67143          	fmadd.d	ft2,fa2,ft10,ft2
    800029d4:	0be6f0c3          	fmadd.d	ft1,fa3,ft10,ft1
    800029d8:	03e77043          	fmadd.d	ft0,fa4,ft10,ft0
    800029dc:	4be7f543          	fmadd.d	fa0,fa5,ft10,fs1
    800029e0:	5a7675c3          	fmadd.d	fa1,fa2,ft7,fa1
    800029e4:	8bee7f43          	fmadd.d	ft10,ft8,ft10,fa7
    800029e8:	2a76f2c3          	fmadd.d	ft5,fa3,ft7,ft5
    800029ec:	22777243          	fmadd.d	ft4,fa4,ft7,ft4
    800029f0:	1a77f1c3          	fmadd.d	ft3,fa5,ft7,ft3
    800029f4:	ea7e7ec3          	fmadd.d	ft9,ft8,ft7,ft9
    800029f8:	a2667643          	fmadd.d	fa2,fa2,ft6,fs4
    800029fc:	9a66f6c3          	fmadd.d	fa3,fa3,ft6,fs3
    80002a00:	92677743          	fmadd.d	fa4,fa4,ft6,fs2
    80002a04:	fa67f7c3          	fmadd.d	fa5,fa5,ft6,ft11
    80002a08:	826e7e43          	fmadd.d	ft8,ft8,ft6,fa6
    80002a0c:	4b078793          	addi	a5,a5,1200
    80002a10:	d0ba14e3          	bne	s4,a1,80002718 <mm_cb+0x5d2>
    80002a14:	f2843407          	fld	fs0,-216(s0)
    80002a18:	03a63027          	fsd	fs10,32(a2)
    80002a1c:	0c263427          	fsd	ft2,200(a2)
    80002a20:	a200                	fsd	fs0,0(a2)
    80002a22:	f2043407          	fld	fs0,-224(s0)
    80002a26:	0c163827          	fsd	ft1,208(a2)
    80002a2a:	0c063c27          	fsd	ft0,216(a2)
    80002a2e:	a600                	fsd	fs0,8(a2)
    80002a30:	f1843407          	fld	fs0,-232(s0)
    80002a34:	b268                	fsd	fa0,224(a2)
    80002a36:	0fe63427          	fsd	ft10,232(a2)
    80002a3a:	aa00                	fsd	fs0,16(a2)
    80002a3c:	f1043407          	fld	fs0,-240(s0)
    80002a40:	18b63827          	fsd	fa1,400(a2)
    80002a44:	18563c27          	fsd	ft5,408(a2)
    80002a48:	ae00                	fsd	fs0,24(a2)
    80002a4a:	1a463027          	fsd	ft4,416(a2)
    80002a4e:	1a363427          	fsd	ft3,424(a2)
    80002a52:	1bd63827          	fsd	ft9,432(a2)
    80002a56:	24c63c27          	fsd	fa2,600(a2)
    80002a5a:	26d63027          	fsd	fa3,608(a2)
    80002a5e:	26e63427          	fsd	fa4,616(a2)
    80002a62:	26f63827          	fsd	fa5,624(a2)
    80002a66:	27c63c27          	fsd	ft8,632(a2)
    80002a6a:	02850513          	addi	a0,a0,40
    80002a6e:	02860613          	addi	a2,a2,40
    80002a72:	c4a994e3          	bne	s3,a0,800026ba <mm_cb+0x574>
    80002a76:	4761                	li	a4,24
    80002a78:	88a6                	mv	a7,s1
    80002a7a:	4581                	li	a1,0
    80002a7c:	e056                	sd	s5,0(sp)
    80002a7e:	863a                	mv	a2,a4
    80002a80:	4865                	li	a6,25
    80002a82:	87ce                	mv	a5,s3
    80002a84:	4511                	li	a0,4
    80002a86:	d7aff0ef          	jal	80002000 <mm_naive>
    80002a8a:	32048493          	addi	s1,s1,800
    80002a8e:	300a0593          	addi	a1,s4,768
    80002a92:	c09b1fe3          	bne	s6,s1,800026b0 <mm_cb+0x56a>
    80002a96:	d3843303          	ld	t1,-712(s0)
    80002a9a:	d4043703          	ld	a4,-704(s0)
    80002a9e:	6685                	lui	a3,0x1
    80002aa0:	f2643423          	sd	t1,-216(s0)
    80002aa4:	e056                	sd	s5,0(sp)
    80002aa6:	df043883          	ld	a7,-528(s0)
    80002aaa:	20068693          	addi	a3,a3,512 # 1200 <buflen.1+0x1180>
    80002aae:	96ba                	add	a3,a3,a4
    80002ab0:	4865                	li	a6,25
    80002ab2:	4761                	li	a4,24
    80002ab4:	87ca                	mv	a5,s2
    80002ab6:	85c2                	mv	a1,a6
    80002ab8:	863a                	mv	a2,a4
    80002aba:	4501                	li	a0,0
    80002abc:	d44ff0ef          	jal	80002000 <mm_naive>
    80002ac0:	f2843303          	ld	t1,-216(s0)
    80002ac4:	e8843783          	ld	a5,-376(s0)
    80002ac8:	0361                	addi	t1,t1,24
    80002aca:	b8f36de3          	bltu	t1,a5,80002664 <mm_cb+0x51e>
    80002ace:	ed043783          	ld	a5,-304(s0)
    80002ad2:	e8843703          	ld	a4,-376(s0)
    80002ad6:	866a                	mv	a2,s10
    80002ad8:	85ee                	mv	a1,s11
    80002ada:	d5843903          	ld	s2,-680(s0)
    80002ade:	d5043983          	ld	s3,-688(s0)
    80002ae2:	d6843d03          	ld	s10,-664(s0)
    80002ae6:	d4843a03          	ld	s4,-696(s0)
    80002aea:	d6043d83          	ld	s11,-672(s0)
    80002aee:	8562                	mv	a0,s8
    80002af0:	12f760e3          	bltu	a4,a5,80003410 <mm_cb+0x12ca>
    80002af4:	ed843783          	ld	a5,-296(s0)
    80002af8:	0965                	addi	s2,s2,25
    80002afa:	0c898993          	addi	s3,s3,200
    80002afe:	b0f968e3          	bltu	s2,a5,8000260e <mm_cb+0x4c8>
    80002b02:	e1043c03          	ld	s8,-496(s0)
    80002b06:	e0843483          	ld	s1,-504(s0)
    80002b0a:	e0043b83          	ld	s7,-512(s0)
    80002b0e:	8b32                	mv	s6,a2
    80002b10:	892e                	mv	s2,a1
    80002b12:	89aa                	mv	s3,a0
    80002b14:	ed843783          	ld	a5,-296(s0)
    80002b18:	1147e8e3          	bltu	a5,s4,80003428 <mm_cb+0x12e2>
    80002b1c:	eb843783          	ld	a5,-328(s0)
    80002b20:	e9843703          	ld	a4,-360(s0)
    80002b24:	00e78eb3          	add	t4,a5,a4
    80002b28:	ea043703          	ld	a4,-352(s0)
    80002b2c:	db843683          	ld	a3,-584(s0)
    80002b30:	e8043783          	ld	a5,-384(s0)
    80002b34:	ebd43c23          	sd	t4,-328(s0)
    80002b38:	9736                	add	a4,a4,a3
    80002b3a:	eae43023          	sd	a4,-352(s0)
    80002b3e:	e9843683          	ld	a3,-360(s0)
    80002b42:	ea843703          	ld	a4,-344(s0)
    80002b46:	07e1                	addi	a5,a5,24
    80002b48:	e8f43023          	sd	a5,-384(s0)
    80002b4c:	9736                	add	a4,a4,a3
    80002b4e:	eae43423          	sd	a4,-344(s0)
    80002b52:	ee843703          	ld	a4,-280(s0)
    80002b56:	a0e7ece3          	bltu	a5,a4,8000256e <mm_cb+0x428>
    80002b5a:	85d2                	mv	a1,s4
    80002b5c:	ee843783          	ld	a5,-280(s0)
    80002b60:	d7043a03          	ld	s4,-656(s0)
    80002b64:	8c4a                	mv	s8,s2
    80002b66:	ed043e83          	ld	t4,-304(s0)
    80002b6a:	894e                	mv	s2,s3
    80002b6c:	ec843803          	ld	a6,-312(s0)
    80002b70:	d7843983          	ld	s3,-648(s0)
    80002b74:	0347fd63          	bgeu	a5,s4,80002bae <mm_cb+0xa68>
    80002b78:	c99d                	beqz	a1,80002bae <mm_cb+0xa68>
    80002b7a:	6018                	ld	a4,0(s0)
    80002b7c:	ee843783          	ld	a5,-280(s0)
    80002b80:	4481                	li	s1,0
    80002b82:	02e787b3          	mul	a5,a5,a4
    80002b86:	973e                	add	a4,a4,a5
    80002b88:	070e                	slli	a4,a4,0x3
    80002b8a:	078e                	slli	a5,a5,0x3
    80002b8c:	974a                	add	a4,a4,s2
    80002b8e:	97ca                	add	a5,a5,s2
    80002b90:	f0e43823          	sd	a4,-240(s0)
    80002b94:	f0f43423          	sd	a5,-248(s0)
    80002b98:	780e97e3          	bnez	t4,80003b26 <mm_cb+0x19e0>
    80002b9c:	04e5                	addi	s1,s1,25
    80002b9e:	feb4efe3          	bltu	s1,a1,80002b9c <mm_cb+0xa56>
    80002ba2:	ee843783          	ld	a5,-280(s0)
    80002ba6:	c39d                	beqz	a5,80002bcc <mm_cb+0xa86>
    80002ba8:	601c                	ld	a5,0(s0)
    80002baa:	00179993          	slli	s3,a5,0x1
    80002bae:	601c                	ld	a5,0(s0)
    80002bb0:	4301                	li	t1,0
    80002bb2:	4881                	li	a7,0
    80002bb4:	00f98533          	add	a0,s3,a5
    80002bb8:	050e                	slli	a0,a0,0x3
    80002bba:	47e1                	li	a5,24
    80002bbc:	68b7e1e3          	bltu	a5,a1,80003a3e <mm_cb+0x18f8>
    80002bc0:	ee843703          	ld	a4,-280(s0)
    80002bc4:	08e1                	addi	a7,a7,24
    80002bc6:	932a                	add	t1,t1,a0
    80002bc8:	fee8eae3          	bltu	a7,a4,80002bbc <mm_cb+0xa76>
    80002bcc:	d2040113          	addi	sp,s0,-736
    80002bd0:	2d813083          	ld	ra,728(sp)
    80002bd4:	2d013403          	ld	s0,720(sp)
    80002bd8:	2c813483          	ld	s1,712(sp)
    80002bdc:	2c013903          	ld	s2,704(sp)
    80002be0:	2b813983          	ld	s3,696(sp)
    80002be4:	2b013a03          	ld	s4,688(sp)
    80002be8:	2a813a83          	ld	s5,680(sp)
    80002bec:	2a013b03          	ld	s6,672(sp)
    80002bf0:	29813b83          	ld	s7,664(sp)
    80002bf4:	29013c03          	ld	s8,656(sp)
    80002bf8:	28813c83          	ld	s9,648(sp)
    80002bfc:	28013d03          	ld	s10,640(sp)
    80002c00:	27813d83          	ld	s11,632(sp)
    80002c04:	26813407          	fld	fs0,616(sp)
    80002c08:	26013487          	fld	fs1,608(sp)
    80002c0c:	25813907          	fld	fs2,600(sp)
    80002c10:	25013987          	fld	fs3,592(sp)
    80002c14:	24813a07          	fld	fs4,584(sp)
    80002c18:	24013a87          	fld	fs5,576(sp)
    80002c1c:	23813b07          	fld	fs6,568(sp)
    80002c20:	23013b87          	fld	fs7,560(sp)
    80002c24:	22813c07          	fld	fs8,552(sp)
    80002c28:	22013c87          	fld	fs9,544(sp)
    80002c2c:	21813d07          	fld	fs10,536(sp)
    80002c30:	21013d87          	fld	fs11,528(sp)
    80002c34:	2e010113          	addi	sp,sp,736
    80002c38:	8082                	ret
    80002c3a:	000e1537          	lui	a0,0xe1
    80002c3e:	47b50513          	addi	a0,a0,1147 # e147b <buflen.1+0xe13fb>
    80002c42:	23d712b7          	lui	t0,0x23d71
    80002c46:	aaaab8b7          	lui	a7,0xaaaab
    80002c4a:	0532                	slli	a0,a0,0xc
    80002c4c:	a3d28293          	addi	t0,t0,-1475 # 23d70a3d <buflen.1+0x23d709bd>
    80002c50:	aab88893          	addi	a7,a7,-1365 # ffffffffaaaaaaab <__global_pointer$+0xffffffff2aaa4ecb>
    80002c54:	e1550513          	addi	a0,a0,-491
    80002c58:	1286                	slli	t0,t0,0x21
    80002c5a:	00a289b3          	add	s3,t0,a0
    80002c5e:	6b05                	lui	s6,0x1
    80002c60:	02089513          	slli	a0,a7,0x20
    80002c64:	01150ab3          	add	s5,a0,a7
    80002c68:	2c0b0b13          	addi	s6,s6,704 # 12c0 <buflen.1+0x1240>
    80002c6c:	00381b93          	slli	s7,a6,0x3
    80002c70:	25800c93          	li	s9,600
    80002c74:	035738b3          	mulhu	a7,a4,s5
    80002c78:	ec043303          	ld	t1,-320(s0)
    80002c7c:	00369493          	slli	s1,a3,0x3
    80002c80:	94e2                	add	s1,s1,s8
    80002c82:	4501                	li	a0,0
    80002c84:	0048d893          	srli	a7,a7,0x4
    80002c88:	02688db3          	mul	s11,a7,t1
    80002c8c:	88fe                	mv	a7,t6
    80002c8e:	0c048f93          	addi	t6,s1,192
    80002c92:	4d01                	li	s10,0
    80002c94:	f3b43423          	sd	s11,-216(s0)
    80002c98:	03353333          	mulhu	t1,a0,s3
    80002c9c:	406502b3          	sub	t0,a0,t1
    80002ca0:	0012d293          	srli	t0,t0,0x1
    80002ca4:	929a                	add	t0,t0,t1
    80002ca6:	0042d293          	srli	t0,t0,0x4
    80002caa:	92ee                	add	t0,t0,s11
    80002cac:	036282b3          	mul	t0,t0,s6
    80002cb0:	e6043303          	ld	t1,-416(s0)
    80002cb4:	929a                	add	t0,t0,t1
    80002cb6:	f40f8313          	addi	t1,t6,-192
    80002cba:	8d96                	mv	s11,t0
    80002cbc:	00033087          	fld	ft1,0(t1)
    80002cc0:	00833007          	fld	ft0,8(t1)
    80002cc4:	01033507          	fld	fa0,16(t1)
    80002cc8:	01833587          	fld	fa1,24(t1)
    80002ccc:	02033607          	fld	fa2,32(t1)
    80002cd0:	02833687          	fld	fa3,40(t1)
    80002cd4:	03033707          	fld	fa4,48(t1)
    80002cd8:	03833787          	fld	fa5,56(t1)
    80002cdc:	001db027          	fsd	ft1,0(s11)
    80002ce0:	000db427          	fsd	ft0,8(s11)
    80002ce4:	00adb827          	fsd	fa0,16(s11)
    80002ce8:	00bdbc27          	fsd	fa1,24(s11)
    80002cec:	02cdb027          	fsd	fa2,32(s11)
    80002cf0:	02ddb427          	fsd	fa3,40(s11)
    80002cf4:	02edb827          	fsd	fa4,48(s11)
    80002cf8:	02fdbc27          	fsd	fa5,56(s11)
    80002cfc:	04030313          	addi	t1,t1,64
    80002d00:	040d8d93          	addi	s11,s11,64
    80002d04:	fa6f9ce3          	bne	t6,t1,80002cbc <mm_cb+0xb76>
    80002d08:	000fb787          	fld	fa5,0(t6)
    80002d0c:	0d65                	addi	s10,s10,25
    80002d0e:	9fde                	add	t6,t6,s7
    80002d10:	0cf2b027          	fsd	fa5,192(t0)
    80002d14:	0c828293          	addi	t0,t0,200
    80002d18:	f99d1fe3          	bne	s10,s9,80002cb6 <mm_cb+0xb70>
    80002d1c:	ed843303          	ld	t1,-296(s0)
    80002d20:	0565                	addi	a0,a0,25
    80002d22:	f2843d83          	ld	s11,-216(s0)
    80002d26:	0c848493          	addi	s1,s1,200
    80002d2a:	f66562e3          	bltu	a0,t1,80002c8e <mm_cb+0xb48>
    80002d2e:	0761                	addi	a4,a4,24
    80002d30:	8fc6                	mv	t6,a7
    80002d32:	96b2                	add	a3,a3,a2
    80002d34:	f5e760e3          	bltu	a4,t5,80002c74 <mm_cb+0xb2e>
    80002d38:	e5aff06f          	j	80002392 <mm_cb+0x24c>
    80002d3c:	000e1537          	lui	a0,0xe1
    80002d40:	47b50513          	addi	a0,a0,1147 # e147b <buflen.1+0xe13fb>
    80002d44:	23d718b7          	lui	a7,0x23d71
    80002d48:	aaaab2b7          	lui	t0,0xaaaab
    80002d4c:	0532                	slli	a0,a0,0xc
    80002d4e:	a3d88893          	addi	a7,a7,-1475 # 23d70a3d <buflen.1+0x23d709bd>
    80002d52:	aab28293          	addi	t0,t0,-1365 # ffffffffaaaaaaab <__global_pointer$+0xffffffff2aaa4ecb>
    80002d56:	e1550513          	addi	a0,a0,-491
    80002d5a:	1886                	slli	a7,a7,0x21
    80002d5c:	00a88ab3          	add	s5,a7,a0
    80002d60:	6b85                	lui	s7,0x1
    80002d62:	02029513          	slli	a0,t0,0x20
    80002d66:	00550b33          	add	s6,a0,t0
    80002d6a:	2c0b8b93          	addi	s7,s7,704 # 12c0 <buflen.1+0x1240>
    80002d6e:	25800c93          	li	s9,600
    80002d72:	88fe                	mv	a7,t6
    80002d74:	03673333          	mulhu	t1,a4,s6
    80002d78:	ec043f83          	ld	t6,-320(s0)
    80002d7c:	00369293          	slli	t0,a3,0x3
    80002d80:	92ca                	add	t0,t0,s2
    80002d82:	4501                	li	a0,0
    80002d84:	00435313          	srli	t1,t1,0x4
    80002d88:	03f30333          	mul	t1,t1,t6
    80002d8c:	f2643423          	sd	t1,-216(s0)
    80002d90:	03553333          	mulhu	t1,a0,s5
    80002d94:	0c028f93          	addi	t6,t0,192
    80002d98:	4d81                	li	s11,0
    80002d9a:	f3143023          	sd	a7,-224(s0)
    80002d9e:	40650d33          	sub	s10,a0,t1
    80002da2:	001d5d13          	srli	s10,s10,0x1
    80002da6:	9d1a                	add	s10,s10,t1
    80002da8:	f2843303          	ld	t1,-216(s0)
    80002dac:	004d5d13          	srli	s10,s10,0x4
    80002db0:	9d1a                	add	s10,s10,t1
    80002db2:	037d0d33          	mul	s10,s10,s7
    80002db6:	eb043303          	ld	t1,-336(s0)
    80002dba:	9d1a                	add	s10,s10,t1
    80002dbc:	f40f8893          	addi	a7,t6,-192
    80002dc0:	836a                	mv	t1,s10
    80002dc2:	0008b087          	fld	ft1,0(a7)
    80002dc6:	0088b007          	fld	ft0,8(a7)
    80002dca:	0108b507          	fld	fa0,16(a7)
    80002dce:	0188b587          	fld	fa1,24(a7)
    80002dd2:	0208b607          	fld	fa2,32(a7)
    80002dd6:	0288b687          	fld	fa3,40(a7)
    80002dda:	0308b707          	fld	fa4,48(a7)
    80002dde:	0388b787          	fld	fa5,56(a7)
    80002de2:	00133027          	fsd	ft1,0(t1)
    80002de6:	00033427          	fsd	ft0,8(t1)
    80002dea:	00a33827          	fsd	fa0,16(t1)
    80002dee:	00b33c27          	fsd	fa1,24(t1)
    80002df2:	02c33027          	fsd	fa2,32(t1)
    80002df6:	02d33427          	fsd	fa3,40(t1)
    80002dfa:	02e33827          	fsd	fa4,48(t1)
    80002dfe:	02f33c27          	fsd	fa5,56(t1)
    80002e02:	04088893          	addi	a7,a7,64
    80002e06:	04030313          	addi	t1,t1,64
    80002e0a:	fb1f9ce3          	bne	t6,a7,80002dc2 <mm_cb+0xc7c>
    80002e0e:	000fb787          	fld	fa5,0(t6)
    80002e12:	e4843883          	ld	a7,-440(s0)
    80002e16:	0de5                	addi	s11,s11,25
    80002e18:	0cfd3027          	fsd	fa5,192(s10)
    80002e1c:	9fc6                	add	t6,t6,a7
    80002e1e:	0c8d0d13          	addi	s10,s10,200
    80002e22:	f99d9de3          	bne	s11,s9,80002dbc <mm_cb+0xc76>
    80002e26:	ed843303          	ld	t1,-296(s0)
    80002e2a:	0565                	addi	a0,a0,25
    80002e2c:	f2043883          	ld	a7,-224(s0)
    80002e30:	0c828293          	addi	t0,t0,200
    80002e34:	f4656ee3          	bltu	a0,t1,80002d90 <mm_cb+0xc4a>
    80002e38:	ee843503          	ld	a0,-280(s0)
    80002e3c:	0761                	addi	a4,a4,24
    80002e3e:	96a6                	add	a3,a3,s1
    80002e40:	f2a76ae3          	bltu	a4,a0,80002d74 <mm_cb+0xc2e>
    80002e44:	8fc6                	mv	t6,a7
    80002e46:	d88ff06f          	j	800023ce <mm_cb+0x288>
    80002e4a:	ed043783          	ld	a5,-304(s0)
    80002e4e:	eb99                	bnez	a5,80002e64 <mm_cb+0xd1e>
    80002e50:	ed843783          	ld	a5,-296(s0)
    80002e54:	0365                	addi	t1,t1,25
    80002e56:	0c870713          	addi	a4,a4,200
    80002e5a:	caf37de3          	bgeu	t1,a5,80002b14 <mm_cb+0x9ce>
    80002e5e:	ed043783          	ld	a5,-304(s0)
    80002e62:	d7fd                	beqz	a5,80002e50 <mm_cb+0xd0a>
    80002e64:	000e17b7          	lui	a5,0xe1
    80002e68:	47b78793          	addi	a5,a5,1147 # e147b <buflen.1+0xe13fb>
    80002e6c:	23d716b7          	lui	a3,0x23d71
    80002e70:	07b2                	slli	a5,a5,0xc
    80002e72:	a3d68693          	addi	a3,a3,-1475 # 23d70a3d <buflen.1+0x23d709bd>
    80002e76:	e1578793          	addi	a5,a5,-491
    80002e7a:	1686                	slli	a3,a3,0x21
    80002e7c:	97b6                	add	a5,a5,a3
    80002e7e:	e0f43023          	sd	a5,-512(s0)
    80002e82:	ea043783          	ld	a5,-352(s0)
    80002e86:	dd043603          	ld	a2,-560(s0)
    80002e8a:	f1643823          	sd	s6,-240(s0)
    80002e8e:	078e                	slli	a5,a5,0x3
    80002e90:	963e                	add	a2,a2,a5
    80002e92:	eec43823          	sd	a2,-272(s0)
    80002e96:	00fb0633          	add	a2,s6,a5
    80002e9a:	e2c43423          	sd	a2,-472(s0)
    80002e9e:	dd843603          	ld	a2,-552(s0)
    80002ea2:	e1843b03          	ld	s6,-488(s0)
    80002ea6:	dfa43c23          	sd	s10,-520(s0)
    80002eaa:	963e                	add	a2,a2,a5
    80002eac:	e0c43423          	sd	a2,-504(s0)
    80002eb0:	de043603          	ld	a2,-544(s0)
    80002eb4:	8d1a                	mv	s10,t1
    80002eb6:	f1443423          	sd	s4,-248(s0)
    80002eba:	97b2                	add	a5,a5,a2
    80002ebc:	e0f43823          	sd	a5,-496(s0)
    80002ec0:	6785                	lui	a5,0x1
    80002ec2:	2c078793          	addi	a5,a5,704 # 12c0 <buflen.1+0x1240>
    80002ec6:	f0f43c23          	sd	a5,-232(s0)
    80002eca:	f1243023          	sd	s2,-256(s0)
    80002ece:	87ba                	mv	a5,a4
    80002ed0:	ef343c23          	sd	s3,-264(s0)
    80002ed4:	e0043703          	ld	a4,-512(s0)
    80002ed8:	e4043603          	ld	a2,-448(s0)
    80002edc:	003d1693          	slli	a3,s10,0x3
    80002ee0:	02ed3733          	mulhu	a4,s10,a4
    80002ee4:	00c682b3          	add	t0,a3,a2
    80002ee8:	e1043903          	ld	s2,-496(s0)
    80002eec:	e0843a03          	ld	s4,-504(s0)
    80002ef0:	e2843c83          	ld	s9,-472(s0)
    80002ef4:	836a                	mv	t1,s10
    80002ef6:	8e3e                	mv	t3,a5
    80002ef8:	4981                	li	s3,0
    80002efa:	0c878793          	addi	a5,a5,200
    80002efe:	40ed06b3          	sub	a3,s10,a4
    80002f02:	8285                	srli	a3,a3,0x1
    80002f04:	9736                	add	a4,a4,a3
    80002f06:	e7043683          	ld	a3,-400(s0)
    80002f0a:	8311                	srli	a4,a4,0x4
    80002f0c:	8d16                	mv	s10,t0
    80002f0e:	9736                	add	a4,a4,a3
    80002f10:	f1843683          	ld	a3,-232(s0)
    80002f14:	02d70733          	mul	a4,a4,a3
    80002f18:	eb043683          	ld	a3,-336(s0)
    80002f1c:	9736                	add	a4,a4,a3
    80002f1e:	0c870893          	addi	a7,a4,200
    80002f22:	82ba                	mv	t0,a4
    80002f24:	e5043703          	ld	a4,-432(s0)
    80002f28:	db043503          	ld	a0,-592(s0)
    80002f2c:	f3888813          	addi	a6,a7,-200
    80002f30:	01970fb3          	add	t6,a4,s9
    80002f34:	01270f33          	add	t5,a4,s2
    80002f38:	8eea                	mv	t4,s10
    80002f3a:	00083f87          	fld	ft11,0(a6)
    80002f3e:	00883f07          	fld	ft10,8(a6)
    80002f42:	01083e87          	fld	ft9,16(a6)
    80002f46:	01883e07          	fld	ft8,24(a6)
    80002f4a:	02083587          	fld	fa1,32(a6)
    80002f4e:	0c883187          	fld	ft3,200(a6)
    80002f52:	0d083107          	fld	ft2,208(a6)
    80002f56:	0d883087          	fld	ft1,216(a6)
    80002f5a:	0e083007          	fld	ft0,224(a6)
    80002f5e:	0e883507          	fld	fa0,232(a6)
    80002f62:	19083887          	fld	fa7,400(a6)
    80002f66:	19883807          	fld	fa6,408(a6)
    80002f6a:	1a083387          	fld	ft7,416(a6)
    80002f6e:	1a883307          	fld	ft6,424(a6)
    80002f72:	1b083607          	fld	fa2,432(a6)
    80002f76:	25883287          	fld	ft5,600(a6)
    80002f7a:	26083207          	fld	ft4,608(a6)
    80002f7e:	26883687          	fld	fa3,616(a6)
    80002f82:	27083707          	fld	fa4,624(a6)
    80002f86:	27883787          	fld	fa5,632(a6)
    80002f8a:	2f2cf563          	bgeu	s9,s2,80003274 <mm_cb+0x112e>
    80002f8e:	85f6                	mv	a1,t4
    80002f90:	01dc0733          	add	a4,s8,t4
    80002f94:	867e                	mv	a2,t6
    80002f96:	86e6                	mv	a3,s9
    80002f98:	f2543423          	sd	t0,-216(s0)
    80002f9c:	f3843023          	sd	s8,-224(s0)
    80002fa0:	01b683b3          	add	t2,a3,s11
    80002fa4:	0003b407          	fld	fs0,0(t2)
    80002fa8:	0005bb87          	fld	fs7,0(a1)
    80002fac:	0085bb07          	fld	fs6,8(a1)
    80002fb0:	0105ba87          	fld	fs5,16(a1)
    80002fb4:	0185ba07          	fld	fs4,24(a1)
    80002fb8:	0205b987          	fld	fs3,32(a1)
    80002fbc:	01b602b3          	add	t0,a2,s11
    80002fc0:	2284                	fld	fs1,0(a3)
    80002fc2:	0002b907          	fld	fs2,0(t0)
    80002fc6:	6289f643          	fmadd.d	fa2,fs3,fs0,fa2
    80002fca:	8a8bf8c3          	fmadd.d	fa7,fs7,fs0,fa7
    80002fce:	828b7843          	fmadd.d	fa6,fs6,fs0,fa6
    80002fd2:	3a8af3c3          	fmadd.d	ft7,fs5,fs0,ft7
    80002fd6:	328a7343          	fmadd.d	ft6,fs4,fs0,ft6
    80002fda:	2200                	fld	fs0,0(a2)
    80002fdc:	7b29f7c3          	fmadd.d	fa5,fs3,fs2,fa5
    80002fe0:	5b34f5c3          	fmadd.d	fa1,fs1,fs3,fa1
    80002fe4:	1a8bf1c3          	fmadd.d	ft3,fs7,fs0,ft3
    80002fe8:	128b7143          	fmadd.d	ft2,fs6,fs0,ft2
    80002fec:	0a8af0c3          	fmadd.d	ft1,fs5,fs0,ft1
    80002ff0:	028a7043          	fmadd.d	ft0,fs4,fs0,ft0
    80002ff4:	2b2bf2c3          	fmadd.d	ft5,fs7,fs2,ft5
    80002ff8:	fb74ffc3          	fmadd.d	ft11,fs1,fs7,ft11
    80002ffc:	232b7243          	fmadd.d	ft4,fs6,fs2,ft4
    80003000:	f364ff43          	fmadd.d	ft10,fs1,fs6,ft10
    80003004:	6b2af6c3          	fmadd.d	fa3,fs5,fs2,fa3
    80003008:	eb54fec3          	fmadd.d	ft9,fs1,fs5,ft9
    8000300c:	732a7743          	fmadd.d	fa4,fs4,fs2,fa4
    80003010:	e344fe43          	fmadd.d	ft8,fs1,fs4,ft8
    80003014:	5289f543          	fmadd.d	fa0,fs3,fs0,fa0
    80003018:	00863b87          	fld	fs7,8(a2)
    8000301c:	2680                	fld	fs0,8(a3)
    8000301e:	02073c07          	fld	fs8,32(a4)
    80003022:	0083b907          	fld	fs2,8(t2)
    80003026:	00073b07          	fld	fs6,0(a4)
    8000302a:	0082b487          	fld	fs1,8(t0)
    8000302e:	00873a87          	fld	fs5,8(a4)
    80003032:	01073a07          	fld	fs4,16(a4)
    80003036:	01873987          	fld	fs3,24(a4)
    8000303a:	537c7543          	fmadd.d	fa0,fs8,fs7,fa0
    8000303e:	8b2b78c3          	fmadd.d	fa7,fs6,fs2,fa7
    80003042:	7299f743          	fmadd.d	fa4,fs3,fs1,fa4
    80003046:	2a9b72c3          	fmadd.d	ft5,fs6,fs1,ft5
    8000304a:	fb647fc3          	fmadd.d	ft11,fs0,fs6,ft11
    8000304e:	832af843          	fmadd.d	fa6,fs5,fs2,fa6
    80003052:	1b7b7b43          	fmadd.d	fs6,fs6,fs7,ft3
    80003056:	229af243          	fmadd.d	ft4,fs5,fs1,ft4
    8000305a:	f3547f43          	fmadd.d	ft10,fs0,fs5,ft10
    8000305e:	3b2a73c3          	fmadd.d	ft7,fs4,fs2,ft7
    80003062:	137afac3          	fmadd.d	fs5,fs5,fs7,ft2
    80003066:	6a9a76c3          	fmadd.d	fa3,fs4,fs1,fa3
    8000306a:	eb447ec3          	fmadd.d	ft9,fs0,fs4,ft9
    8000306e:	7a9c74c3          	fmadd.d	fs1,fs8,fs1,fa5
    80003072:	0b7a7a43          	fmadd.d	fs4,fs4,fs7,ft1
    80003076:	3329f343          	fmadd.d	ft6,fs3,fs2,ft6
    8000307a:	e3347e43          	fmadd.d	ft8,fs0,fs3,ft8
    8000307e:	632c7943          	fmadd.d	fs2,fs8,fs2,fa2
    80003082:	5b847443          	fmadd.d	fs0,fs0,fs8,fa1
    80003086:	0379f9c3          	fmadd.d	fs3,fs3,fs7,ft0
    8000308a:	00b48c33          	add	s8,s1,a1
    8000308e:	0103b787          	fld	fa5,16(t2)
    80003092:	0106b007          	fld	ft0,16(a3)
    80003096:	2a10                	fld	fa2,16(a2)
    80003098:	000c3b87          	fld	fs7,0(s8)
    8000309c:	008c3187          	fld	ft3,8(s8)
    800030a0:	010c3107          	fld	ft2,16(s8)
    800030a4:	018c3087          	fld	ft1,24(s8)
    800030a8:	020c3c07          	fld	fs8,32(s8)
    800030ac:	0102b587          	fld	fa1,16(t0)
    800030b0:	8afbf8c3          	fmadd.d	fa7,fs7,fa5,fa7
    800030b4:	92fc7943          	fmadd.d	fs2,fs8,fa5,fs2
    800030b8:	2abbf2c3          	fmadd.d	ft5,fs7,fa1,ft5
    800030bc:	82f1f843          	fmadd.d	fa6,ft3,fa5,fa6
    800030c0:	22b1f243          	fmadd.d	ft4,ft3,fa1,ft4
    800030c4:	3af173c3          	fmadd.d	ft7,ft2,fa5,ft7
    800030c8:	6ab176c3          	fmadd.d	fa3,ft2,fa1,fa3
    800030cc:	32f0f343          	fmadd.d	ft6,ft1,fa5,ft6
    800030d0:	fb707fc3          	fmadd.d	ft11,ft0,fs7,ft11
    800030d4:	72b0f7c3          	fmadd.d	fa5,ft1,fa1,fa4
    800030d8:	b2cbfbc3          	fmadd.d	fs7,fs7,fa2,fs6
    800030dc:	4abc75c3          	fmadd.d	fa1,fs8,fa1,fs1
    800030e0:	f2307f43          	fmadd.d	ft10,ft0,ft3,ft10
    800030e4:	ea207ec3          	fmadd.d	ft9,ft0,ft2,ft9
    800030e8:	aac1f1c3          	fmadd.d	ft3,ft3,fa2,fs5
    800030ec:	a2c17143          	fmadd.d	ft2,ft2,fa2,fs4
    800030f0:	e2107e43          	fmadd.d	ft8,ft0,ft1,ft8
    800030f4:	43807043          	fmadd.d	ft0,ft0,fs8,fs0
    800030f8:	9ac0f0c3          	fmadd.d	ft1,ft1,fa2,fs3
    800030fc:	52cc7643          	fmadd.d	fa2,fs8,fa2,fa0
    80003100:	9726                	add	a4,a4,s1
    80003102:	2e88                	fld	fa0,24(a3)
    80003104:	00073b07          	fld	fs6,0(a4)
    80003108:	00873a87          	fld	fs5,8(a4)
    8000310c:	01073a07          	fld	fs4,16(a4)
    80003110:	01873987          	fld	fs3,24(a4)
    80003114:	02073c07          	fld	fs8,32(a4)
    80003118:	2e18                	fld	fa4,24(a2)
    8000311a:	0183b487          	fld	fs1,24(t2)
    8000311e:	0182b407          	fld	fs0,24(t0)
    80003122:	62ec7cc3          	fmadd.d	fs9,fs8,fa4,fa2
    80003126:	fb657fc3          	fmadd.d	ft11,fa0,fs6,ft11
    8000312a:	7a89f7c3          	fmadd.d	fa5,fs3,fs0,fa5
    8000312e:	f3557f43          	fmadd.d	ft10,fa0,fs5,ft10
    80003132:	eb457ec3          	fmadd.d	ft9,fa0,fs4,ft9
    80003136:	e3357e43          	fmadd.d	ft8,fa0,fs3,ft8
    8000313a:	8a9b78c3          	fmadd.d	fa7,fs6,fs1,fa7
    8000313e:	03857543          	fmadd.d	fa0,fa0,fs8,ft0
    80003142:	829af843          	fmadd.d	fa6,fs5,fs1,fa6
    80003146:	3a9a73c3          	fmadd.d	ft7,fs4,fs1,ft7
    8000314a:	3299f343          	fmadd.d	ft6,fs3,fs1,ft6
    8000314e:	2a8b72c3          	fmadd.d	ft5,fs6,fs0,ft5
    80003152:	929c74c3          	fmadd.d	fs1,fs8,fs1,fs2
    80003156:	228af243          	fmadd.d	ft4,fs5,fs0,ft4
    8000315a:	6a8a76c3          	fmadd.d	fa3,fs4,fs0,fa3
    8000315e:	baeb7b43          	fmadd.d	fs6,fs6,fa4,fs7
    80003162:	5a8c7443          	fmadd.d	fs0,fs8,fs0,fa1
    80003166:	1aeafac3          	fmadd.d	fs5,fs5,fa4,ft3
    8000316a:	12ea7a43          	fmadd.d	fs4,fs4,fa4,ft2
    8000316e:	0ae9f9c3          	fmadd.d	fs3,fs3,fa4,ft1
    80003172:	00bb8c33          	add	s8,s7,a1
    80003176:	0206b087          	fld	ft1,32(a3)
    8000317a:	02063007          	fld	ft0,32(a2)
    8000317e:	0202b607          	fld	fa2,32(t0)
    80003182:	0203b587          	fld	fa1,32(t2)
    80003186:	008c3b87          	fld	fs7,8(s8)
    8000318a:	010c3907          	fld	fs2,16(s8)
    8000318e:	018c3187          	fld	ft3,24(s8)
    80003192:	020c3107          	fld	ft2,32(s8)
    80003196:	000c3c07          	fld	fs8,0(s8)
    8000319a:	7ac1f743          	fmadd.d	fa4,ft3,fa2,fa5
    8000319e:	5220fd43          	fmadd.d	fs10,ft1,ft2,fa0
    800031a2:	82bbf843          	fmadd.d	fa6,fs7,fa1,fa6
    800031a6:	3ab973c3          	fmadd.d	ft7,fs2,fa1,ft7
    800031aa:	32b1f343          	fmadd.d	ft6,ft3,fa1,ft6
    800031ae:	22cbf243          	fmadd.d	ft4,fs7,fa2,ft4
    800031b2:	6ac976c3          	fmadd.d	fa3,fs2,fa2,fa3
    800031b6:	42c17443          	fmadd.d	fs0,ft2,fa2,fs0
    800031ba:	f370ff43          	fmadd.d	ft10,ft1,fs7,ft10
    800031be:	eb20fec3          	fmadd.d	ft9,ft1,fs2,ft9
    800031c2:	e230fe43          	fmadd.d	ft8,ft1,ft3,ft8
    800031c6:	aa0bfac3          	fmadd.d	fs5,fs7,ft0,fs5
    800031ca:	a2097a43          	fmadd.d	fs4,fs2,ft0,fs4
    800031ce:	9a01f9c3          	fmadd.d	fs3,ft3,ft0,fs3
    800031d2:	ca017bc3          	fmadd.d	fs7,ft2,ft0,fs9
    800031d6:	8abc78c3          	fmadd.d	fa7,fs8,fa1,fa7
    800031da:	2acc72c3          	fmadd.d	ft5,fs8,fa2,ft5
    800031de:	4ab175c3          	fmadd.d	fa1,ft2,fa1,fs1
    800031e2:	fb80ffc3          	fmadd.d	ft11,ft1,fs8,ft11
    800031e6:	b20c7b43          	fmadd.d	fs6,fs8,ft0,fs6
    800031ea:	9726                	add	a4,a4,s1
    800031ec:	0286b907          	fld	fs2,40(a3)
    800031f0:	3604                	fld	fs1,40(a2)
    800031f2:	00073187          	fld	ft3,0(a4)
    800031f6:	0283b607          	fld	fa2,40(t2)
    800031fa:	00873107          	fld	ft2,8(a4)
    800031fe:	01073087          	fld	ft1,16(a4)
    80003202:	01873007          	fld	ft0,24(a4)
    80003206:	3308                	fld	fa0,32(a4)
    80003208:	0282b787          	fld	fa5,40(t0)
    8000320c:	03068693          	addi	a3,a3,48
    80003210:	8ac1f8c3          	fmadd.d	fa7,ft3,fa2,fa7
    80003214:	82c17843          	fmadd.d	fa6,ft2,fa2,fa6
    80003218:	3ac0f3c3          	fmadd.d	ft7,ft1,fa2,ft7
    8000321c:	32c07343          	fmadd.d	ft6,ft0,fa2,ft6
    80003220:	2af1f2c3          	fmadd.d	ft5,ft3,fa5,ft5
    80003224:	5ac57643          	fmadd.d	fa2,fa0,fa2,fa1
    80003228:	22f17243          	fmadd.d	ft4,ft2,fa5,ft4
    8000322c:	6af0f6c3          	fmadd.d	fa3,ft1,fa5,fa3
    80003230:	72f07743          	fmadd.d	fa4,ft0,fa5,fa4
    80003234:	fa397fc3          	fmadd.d	ft11,fs2,ft3,ft11
    80003238:	42f577c3          	fmadd.d	fa5,fa0,fa5,fs0
    8000323c:	f2297f43          	fmadd.d	ft10,fs2,ft2,ft10
    80003240:	ea197ec3          	fmadd.d	ft9,fs2,ft1,ft9
    80003244:	e2097e43          	fmadd.d	ft8,fs2,ft0,ft8
    80003248:	d2a975c3          	fmadd.d	fa1,fs2,fa0,fs10
    8000324c:	b291f1c3          	fmadd.d	ft3,ft3,fs1,fs6
    80003250:	aa917143          	fmadd.d	ft2,ft2,fs1,fs5
    80003254:	a290f0c3          	fmadd.d	ft1,ft1,fs1,fs4
    80003258:	9a907043          	fmadd.d	ft0,ft0,fs1,fs3
    8000325c:	ba957543          	fmadd.d	fa0,fa0,fs1,fs7
    80003260:	95da                	add	a1,a1,s6
    80003262:	9726                	add	a4,a4,s1
    80003264:	03060613          	addi	a2,a2,48
    80003268:	d326ece3          	bltu	a3,s2,80002fa0 <mm_cb+0xe5a>
    8000326c:	f2843283          	ld	t0,-216(s0)
    80003270:	f2043c03          	ld	s8,-224(s0)
    80003274:	09497763          	bgeu	s2,s4,80003302 <mm_cb+0x11bc>
    80003278:	01d50733          	add	a4,a0,t4
    8000327c:	867a                	mv	a2,t5
    8000327e:	86ca                	mv	a3,s2
    80003280:	01b685b3          	add	a1,a3,s11
    80003284:	0005b987          	fld	fs3,0(a1)
    80003288:	01b605b3          	add	a1,a2,s11
    8000328c:	2284                	fld	fs1,0(a3)
    8000328e:	2200                	fld	fs0,0(a2)
    80003290:	00073c07          	fld	fs8,0(a4)
    80003294:	00873b87          	fld	fs7,8(a4)
    80003298:	01073b07          	fld	fs6,16(a4)
    8000329c:	01873a87          	fld	fs5,24(a4)
    800032a0:	02073a07          	fld	fs4,32(a4)
    800032a4:	0005b907          	fld	fs2,0(a1)
    800032a8:	06a1                	addi	a3,a3,8
    800032aa:	8b3c78c3          	fmadd.d	fa7,fs8,fs3,fa7
    800032ae:	833bf843          	fmadd.d	fa6,fs7,fs3,fa6
    800032b2:	3b3b73c3          	fmadd.d	ft7,fs6,fs3,ft7
    800032b6:	333af343          	fmadd.d	ft6,fs5,fs3,ft6
    800032ba:	633a7643          	fmadd.d	fa2,fs4,fs3,fa2
    800032be:	2b2c72c3          	fmadd.d	ft5,fs8,fs2,ft5
    800032c2:	232bf243          	fmadd.d	ft4,fs7,fs2,ft4
    800032c6:	6b2b76c3          	fmadd.d	fa3,fs6,fs2,fa3
    800032ca:	732af743          	fmadd.d	fa4,fs5,fs2,fa4
    800032ce:	7b2a77c3          	fmadd.d	fa5,fs4,fs2,fa5
    800032d2:	fb84ffc3          	fmadd.d	ft11,fs1,fs8,ft11
    800032d6:	f374ff43          	fmadd.d	ft10,fs1,fs7,ft10
    800032da:	eb64fec3          	fmadd.d	ft9,fs1,fs6,ft9
    800032de:	e354fe43          	fmadd.d	ft8,fs1,fs5,ft8
    800032e2:	5b44f5c3          	fmadd.d	fa1,fs1,fs4,fa1
    800032e6:	1a8c71c3          	fmadd.d	ft3,fs8,fs0,ft3
    800032ea:	128bf143          	fmadd.d	ft2,fs7,fs0,ft2
    800032ee:	0a8b70c3          	fmadd.d	ft1,fs6,fs0,ft1
    800032f2:	028af043          	fmadd.d	ft0,fs5,fs0,ft0
    800032f6:	528a7543          	fmadd.d	fa0,fs4,fs0,fa0
    800032fa:	9762                	add	a4,a4,s8
    800032fc:	0621                	addi	a2,a2,8
    800032fe:	f946e1e3          	bltu	a3,s4,80003280 <mm_cb+0x113a>
    80003302:	01f83027          	fsd	ft11,0(a6)
    80003306:	01e83427          	fsd	ft10,8(a6)
    8000330a:	01d83827          	fsd	ft9,16(a6)
    8000330e:	01c83c27          	fsd	ft8,24(a6)
    80003312:	02b83027          	fsd	fa1,32(a6)
    80003316:	0c383427          	fsd	ft3,200(a6)
    8000331a:	0c283827          	fsd	ft2,208(a6)
    8000331e:	0c183c27          	fsd	ft1,216(a6)
    80003322:	0e083027          	fsd	ft0,224(a6)
    80003326:	0ea83427          	fsd	fa0,232(a6)
    8000332a:	19183827          	fsd	fa7,400(a6)
    8000332e:	19083c27          	fsd	fa6,408(a6)
    80003332:	1a783027          	fsd	ft7,416(a6)
    80003336:	1a683427          	fsd	ft6,424(a6)
    8000333a:	1ac83827          	fsd	fa2,432(a6)
    8000333e:	24583c27          	fsd	ft5,600(a6)
    80003342:	26483027          	fsd	ft4,608(a6)
    80003346:	26d83427          	fsd	fa3,616(a6)
    8000334a:	26e83827          	fsd	fa4,624(a6)
    8000334e:	26f83c27          	fsd	fa5,632(a6)
    80003352:	028e8e93          	addi	t4,t4,40
    80003356:	02880813          	addi	a6,a6,40
    8000335a:	bfd790e3          	bne	a5,t4,80002f3a <mm_cb+0xdf4>
    8000335e:	d8543823          	sd	t0,-624(s0)
    80003362:	d8643c23          	sd	t1,-616(s0)
    80003366:	dfc43823          	sd	t3,-528(s0)
    8000336a:	e056                	sd	s5,0(sp)
    8000336c:	ee043703          	ld	a4,-288(s0)
    80003370:	ec843803          	ld	a6,-312(s0)
    80003374:	e5843603          	ld	a2,-424(s0)
    80003378:	f3143023          	sd	a7,-224(s0)
    8000337c:	f2f43423          	sd	a5,-216(s0)
    80003380:	86e6                	mv	a3,s9
    80003382:	4581                	li	a1,0
    80003384:	4511                	li	a0,4
    80003386:	c7bfe0ef          	jal	80002000 <mm_naive>
    8000338a:	e3843783          	ld	a5,-456(s0)
    8000338e:	f2043883          	ld	a7,-224(s0)
    80003392:	06498993          	addi	s3,s3,100
    80003396:	25800713          	li	a4,600
    8000339a:	9cbe                	add	s9,s9,a5
    8000339c:	9a3e                	add	s4,s4,a5
    8000339e:	993e                	add	s2,s2,a5
    800033a0:	df043e03          	ld	t3,-528(s0)
    800033a4:	f2843783          	ld	a5,-216(s0)
    800033a8:	d9843303          	ld	t1,-616(s0)
    800033ac:	d9043283          	ld	t0,-624(s0)
    800033b0:	32088893          	addi	a7,a7,800
    800033b4:	b6e998e3          	bne	s3,a4,80002f24 <mm_cb+0xdde>
    800033b8:	e056                	sd	s5,0(sp)
    800033ba:	f1843683          	ld	a3,-232(s0)
    800033be:	ec843803          	ld	a6,-312(s0)
    800033c2:	ee043703          	ld	a4,-288(s0)
    800033c6:	00d288b3          	add	a7,t0,a3
    800033ca:	e5843603          	ld	a2,-424(s0)
    800033ce:	ef043683          	ld	a3,-272(s0)
    800033d2:	89be                	mv	s3,a5
    800033d4:	45e5                	li	a1,25
    800033d6:	87f2                	mv	a5,t3
    800033d8:	4501                	li	a0,0
    800033da:	01930d13          	addi	s10,t1,25
    800033de:	c23fe0ef          	jal	80002000 <mm_naive>
    800033e2:	ed843783          	ld	a5,-296(s0)
    800033e6:	64fd7263          	bgeu	s10,a5,80003a2a <mm_cb+0x18e4>
    800033ea:	e8843703          	ld	a4,-376(s0)
    800033ee:	87ce                	mv	a5,s3
    800033f0:	ae0702e3          	beqz	a4,80002ed4 <mm_cb+0xd8e>
    800033f4:	836a                	mv	t1,s10
    800033f6:	874e                	mv	a4,s3
    800033f8:	df843d03          	ld	s10,-520(s0)
    800033fc:	f1043b03          	ld	s6,-240(s0)
    80003400:	f0843a03          	ld	s4,-248(s0)
    80003404:	f0043903          	ld	s2,-256(s0)
    80003408:	ef843983          	ld	s3,-264(s0)
    8000340c:	99cff06f          	j	800025a8 <mm_cb+0x462>
    80003410:	834a                	mv	t1,s2
    80003412:	874e                	mv	a4,s3
    80003414:	e1043c03          	ld	s8,-496(s0)
    80003418:	e0843483          	ld	s1,-504(s0)
    8000341c:	e0043b83          	ld	s7,-512(s0)
    80003420:	8b32                	mv	s6,a2
    80003422:	892e                	mv	s2,a1
    80003424:	89aa                	mv	s3,a0
    80003426:	bc3d                	j	80002e64 <mm_cb+0xd1e>
    80003428:	ed043783          	ld	a5,-304(s0)
    8000342c:	ee078863          	beqz	a5,80002b1c <mm_cb+0x9d6>
    80003430:	aaaab7b7          	lui	a5,0xaaaab
    80003434:	aab78793          	addi	a5,a5,-1365 # ffffffffaaaaaaab <__global_pointer$+0xffffffff2aaa4ecb>
    80003438:	02079713          	slli	a4,a5,0x20
    8000343c:	97ba                	add	a5,a5,a4
    8000343e:	e0f43823          	sd	a5,-496(s0)
    80003442:	ea043783          	ld	a5,-352(s0)
    80003446:	e9043703          	ld	a4,-368(s0)
    8000344a:	e1443023          	sd	s4,-512(s0)
    8000344e:	078e                	slli	a5,a5,0x3
    80003450:	00f70333          	add	t1,a4,a5
    80003454:	eb843783          	ld	a5,-328(s0)
    80003458:	e9843703          	ld	a4,-360(s0)
    8000345c:	e1843a03          	ld	s4,-488(s0)
    80003460:	e1643423          	sd	s6,-504(s0)
    80003464:	00f70eb3          	add	t4,a4,a5
    80003468:	e4843703          	ld	a4,-440(s0)
    8000346c:	4d01                	li	s10,0
    8000346e:	8b1a                	mv	s6,t1
    80003470:	00f706b3          	add	a3,a4,a5
    80003474:	e6d43823          	sd	a3,-400(s0)
    80003478:	ea843683          	ld	a3,-344(s0)
    8000347c:	efd43c23          	sd	t4,-264(s0)
    80003480:	df243c23          	sd	s2,-520(s0)
    80003484:	9736                	add	a4,a4,a3
    80003486:	eee43823          	sd	a4,-272(s0)
    8000348a:	e3043703          	ld	a4,-464(s0)
    8000348e:	df343823          	sd	s3,-528(s0)
    80003492:	97ba                	add	a5,a5,a4
    80003494:	e2f43423          	sd	a5,-472(s0)
    80003498:	dc843783          	ld	a5,-568(s0)
    8000349c:	f0f43823          	sd	a5,-240(s0)
    800034a0:	ed043783          	ld	a5,-304(s0)
    800034a4:	41a78633          	sub	a2,a5,s10
    800034a8:	47e1                	li	a5,24
    800034aa:	00c7f363          	bgeu	a5,a2,800034b0 <mm_cb+0x136a>
    800034ae:	863e                	mv	a2,a5
    800034b0:	e1043783          	ld	a5,-496(s0)
    800034b4:	f1043683          	ld	a3,-240(s0)
    800034b8:	00361993          	slli	s3,a2,0x3
    800034bc:	02f63733          	mulhu	a4,a2,a5
    800034c0:	e3043783          	ld	a5,-464(s0)
    800034c4:	99da                	add	s3,s3,s6
    800034c6:	8cda                	mv	s9,s6
    800034c8:	97b6                	add	a5,a5,a3
    800034ca:	4699                	li	a3,6
    800034cc:	f0d43023          	sd	a3,-256(s0)
    800034d0:	ec843683          	ld	a3,-312(s0)
    800034d4:	d9a43c23          	sd	s10,-616(s0)
    800034d8:	83b2                	mv	t2,a2
    800034da:	8309                	srli	a4,a4,0x2
    800034dc:	02e686b3          	mul	a3,a3,a4
    800034e0:	00171913          	slli	s2,a4,0x1
    800034e4:	993a                	add	s2,s2,a4
    800034e6:	0912                	slli	s2,s2,0x4
    800034e8:	995a                	add	s2,s2,s6
    800034ea:	8d5a                	mv	s10,s6
    800034ec:	4b01                	li	s6,0
    800034ee:	00169713          	slli	a4,a3,0x1
    800034f2:	9736                	add	a4,a4,a3
    800034f4:	0712                	slli	a4,a4,0x4
    800034f6:	f0e43423          	sd	a4,-248(s0)
    800034fa:	e2043703          	ld	a4,-480(s0)
    800034fe:	4691                	li	a3,4
    80003500:	003b1893          	slli	a7,s6,0x3
    80003504:	46e6fb63          	bgeu	a3,a4,8000397a <mm_cb+0x1834>
    80003508:	eb843703          	ld	a4,-328(s0)
    8000350c:	f1043e83          	ld	t4,-240(s0)
    80003510:	4f01                	li	t5,0
    80003512:	01170e33          	add	t3,a4,a7
    80003516:	e7043703          	ld	a4,-400(s0)
    8000351a:	853e                	mv	a0,a5
    8000351c:	011706b3          	add	a3,a4,a7
    80003520:	ea843703          	ld	a4,-344(s0)
    80003524:	01170333          	add	t1,a4,a7
    80003528:	ef043703          	ld	a4,-272(s0)
    8000352c:	01170833          	add	a6,a4,a7
    80003530:	e5043703          	ld	a4,-432(s0)
    80003534:	019702b3          	add	t0,a4,s9
    80003538:	01270fb3          	add	t6,a4,s2
    8000353c:	000e3f87          	fld	ft11,0(t3)
    80003540:	008e3f07          	fld	ft10,8(t3)
    80003544:	010e3e87          	fld	ft9,16(t3)
    80003548:	018e3e07          	fld	ft8,24(t3)
    8000354c:	020e3587          	fld	fa1,32(t3)
    80003550:	0006b187          	fld	ft3,0(a3)
    80003554:	0086b107          	fld	ft2,8(a3)
    80003558:	0106b087          	fld	ft1,16(a3)
    8000355c:	0186b007          	fld	ft0,24(a3)
    80003560:	3288                	fld	fa0,32(a3)
    80003562:	00033887          	fld	fa7,0(t1)
    80003566:	00833807          	fld	fa6,8(t1)
    8000356a:	01033387          	fld	ft7,16(t1)
    8000356e:	01833307          	fld	ft6,24(t1)
    80003572:	02033607          	fld	fa2,32(t1)
    80003576:	00083287          	fld	ft5,0(a6)
    8000357a:	00883207          	fld	ft4,8(a6)
    8000357e:	01083687          	fld	fa3,16(a6)
    80003582:	01883707          	fld	fa4,24(a6)
    80003586:	02083787          	fld	fa5,32(a6)
    8000358a:	2f2cf963          	bgeu	s9,s2,8000387c <mm_cb+0x1736>
    8000358e:	85f6                	mv	a1,t4
    80003590:	01dc07b3          	add	a5,s8,t4
    80003594:	8616                	mv	a2,t0
    80003596:	8766                	mv	a4,s9
    80003598:	f2743423          	sd	t2,-216(s0)
    8000359c:	f3843023          	sd	s8,-224(s0)
    800035a0:	f1e43c23          	sd	t5,-232(s0)
    800035a4:	01b703b3          	add	t2,a4,s11
    800035a8:	0003b407          	fld	fs0,0(t2)
    800035ac:	0005bb87          	fld	fs7,0(a1)
    800035b0:	0085bb07          	fld	fs6,8(a1)
    800035b4:	0105ba87          	fld	fs5,16(a1)
    800035b8:	0185ba07          	fld	fs4,24(a1)
    800035bc:	0205b987          	fld	fs3,32(a1)
    800035c0:	01b60f33          	add	t5,a2,s11
    800035c4:	2304                	fld	fs1,0(a4)
    800035c6:	000f3907          	fld	fs2,0(t5)
    800035ca:	6289f643          	fmadd.d	fa2,fs3,fs0,fa2
    800035ce:	8a8bf8c3          	fmadd.d	fa7,fs7,fs0,fa7
    800035d2:	828b7843          	fmadd.d	fa6,fs6,fs0,fa6
    800035d6:	3a8af3c3          	fmadd.d	ft7,fs5,fs0,ft7
    800035da:	328a7343          	fmadd.d	ft6,fs4,fs0,ft6
    800035de:	2200                	fld	fs0,0(a2)
    800035e0:	7b29f7c3          	fmadd.d	fa5,fs3,fs2,fa5
    800035e4:	5b34f5c3          	fmadd.d	fa1,fs1,fs3,fa1
    800035e8:	1a8bf1c3          	fmadd.d	ft3,fs7,fs0,ft3
    800035ec:	128b7143          	fmadd.d	ft2,fs6,fs0,ft2
    800035f0:	0a8af0c3          	fmadd.d	ft1,fs5,fs0,ft1
    800035f4:	028a7043          	fmadd.d	ft0,fs4,fs0,ft0
    800035f8:	2b2bf2c3          	fmadd.d	ft5,fs7,fs2,ft5
    800035fc:	fb74ffc3          	fmadd.d	ft11,fs1,fs7,ft11
    80003600:	232b7243          	fmadd.d	ft4,fs6,fs2,ft4
    80003604:	f364ff43          	fmadd.d	ft10,fs1,fs6,ft10
    80003608:	6b2af6c3          	fmadd.d	fa3,fs5,fs2,fa3
    8000360c:	eb54fec3          	fmadd.d	ft9,fs1,fs5,ft9
    80003610:	732a7743          	fmadd.d	fa4,fs4,fs2,fa4
    80003614:	e344fe43          	fmadd.d	ft8,fs1,fs4,ft8
    80003618:	5289f543          	fmadd.d	fa0,fs3,fs0,fa0
    8000361c:	00863b87          	fld	fs7,8(a2)
    80003620:	2700                	fld	fs0,8(a4)
    80003622:	0207bc07          	fld	fs8,32(a5)
    80003626:	0083b907          	fld	fs2,8(t2)
    8000362a:	0007bb07          	fld	fs6,0(a5)
    8000362e:	008f3487          	fld	fs1,8(t5)
    80003632:	0087ba87          	fld	fs5,8(a5)
    80003636:	0107ba07          	fld	fs4,16(a5)
    8000363a:	0187b987          	fld	fs3,24(a5)
    8000363e:	537c7543          	fmadd.d	fa0,fs8,fs7,fa0
    80003642:	8b2b78c3          	fmadd.d	fa7,fs6,fs2,fa7
    80003646:	7299f743          	fmadd.d	fa4,fs3,fs1,fa4
    8000364a:	2a9b72c3          	fmadd.d	ft5,fs6,fs1,ft5
    8000364e:	fb647fc3          	fmadd.d	ft11,fs0,fs6,ft11
    80003652:	832af843          	fmadd.d	fa6,fs5,fs2,fa6
    80003656:	1b7b7b43          	fmadd.d	fs6,fs6,fs7,ft3
    8000365a:	229af243          	fmadd.d	ft4,fs5,fs1,ft4
    8000365e:	f3547f43          	fmadd.d	ft10,fs0,fs5,ft10
    80003662:	3b2a73c3          	fmadd.d	ft7,fs4,fs2,ft7
    80003666:	137afac3          	fmadd.d	fs5,fs5,fs7,ft2
    8000366a:	6a9a76c3          	fmadd.d	fa3,fs4,fs1,fa3
    8000366e:	eb447ec3          	fmadd.d	ft9,fs0,fs4,ft9
    80003672:	7a9c74c3          	fmadd.d	fs1,fs8,fs1,fa5
    80003676:	0b7a7a43          	fmadd.d	fs4,fs4,fs7,ft1
    8000367a:	3329f343          	fmadd.d	ft6,fs3,fs2,ft6
    8000367e:	e3347e43          	fmadd.d	ft8,fs0,fs3,ft8
    80003682:	632c7943          	fmadd.d	fs2,fs8,fs2,fa2
    80003686:	5b847443          	fmadd.d	fs0,fs0,fs8,fa1
    8000368a:	0379f9c3          	fmadd.d	fs3,fs3,fs7,ft0
    8000368e:	00b48c33          	add	s8,s1,a1
    80003692:	0103b787          	fld	fa5,16(t2)
    80003696:	01073007          	fld	ft0,16(a4)
    8000369a:	2a10                	fld	fa2,16(a2)
    8000369c:	000c3b87          	fld	fs7,0(s8)
    800036a0:	008c3187          	fld	ft3,8(s8)
    800036a4:	010c3107          	fld	ft2,16(s8)
    800036a8:	018c3087          	fld	ft1,24(s8)
    800036ac:	020c3c07          	fld	fs8,32(s8)
    800036b0:	010f3587          	fld	fa1,16(t5)
    800036b4:	8afbf8c3          	fmadd.d	fa7,fs7,fa5,fa7
    800036b8:	92fc7943          	fmadd.d	fs2,fs8,fa5,fs2
    800036bc:	2abbf2c3          	fmadd.d	ft5,fs7,fa1,ft5
    800036c0:	82f1f843          	fmadd.d	fa6,ft3,fa5,fa6
    800036c4:	22b1f243          	fmadd.d	ft4,ft3,fa1,ft4
    800036c8:	3af173c3          	fmadd.d	ft7,ft2,fa5,ft7
    800036cc:	6ab176c3          	fmadd.d	fa3,ft2,fa1,fa3
    800036d0:	32f0f343          	fmadd.d	ft6,ft1,fa5,ft6
    800036d4:	fb707fc3          	fmadd.d	ft11,ft0,fs7,ft11
    800036d8:	72b0f7c3          	fmadd.d	fa5,ft1,fa1,fa4
    800036dc:	b2cbfbc3          	fmadd.d	fs7,fs7,fa2,fs6
    800036e0:	4abc75c3          	fmadd.d	fa1,fs8,fa1,fs1
    800036e4:	f2307f43          	fmadd.d	ft10,ft0,ft3,ft10
    800036e8:	ea207ec3          	fmadd.d	ft9,ft0,ft2,ft9
    800036ec:	aac1f1c3          	fmadd.d	ft3,ft3,fa2,fs5
    800036f0:	a2c17143          	fmadd.d	ft2,ft2,fa2,fs4
    800036f4:	e2107e43          	fmadd.d	ft8,ft0,ft1,ft8
    800036f8:	43807043          	fmadd.d	ft0,ft0,fs8,fs0
    800036fc:	9ac0f0c3          	fmadd.d	ft1,ft1,fa2,fs3
    80003700:	52cc7643          	fmadd.d	fa2,fs8,fa2,fa0
    80003704:	97a6                	add	a5,a5,s1
    80003706:	2f08                	fld	fa0,24(a4)
    80003708:	0007bb07          	fld	fs6,0(a5)
    8000370c:	0087ba87          	fld	fs5,8(a5)
    80003710:	0107ba07          	fld	fs4,16(a5)
    80003714:	0187b987          	fld	fs3,24(a5)
    80003718:	0207bc07          	fld	fs8,32(a5)
    8000371c:	2e18                	fld	fa4,24(a2)
    8000371e:	0183b487          	fld	fs1,24(t2)
    80003722:	018f3407          	fld	fs0,24(t5)
    80003726:	62ec7cc3          	fmadd.d	fs9,fs8,fa4,fa2
    8000372a:	fb657fc3          	fmadd.d	ft11,fa0,fs6,ft11
    8000372e:	7a89f7c3          	fmadd.d	fa5,fs3,fs0,fa5
    80003732:	f3557f43          	fmadd.d	ft10,fa0,fs5,ft10
    80003736:	eb457ec3          	fmadd.d	ft9,fa0,fs4,ft9
    8000373a:	e3357e43          	fmadd.d	ft8,fa0,fs3,ft8
    8000373e:	8a9b78c3          	fmadd.d	fa7,fs6,fs1,fa7
    80003742:	03857543          	fmadd.d	fa0,fa0,fs8,ft0
    80003746:	829af843          	fmadd.d	fa6,fs5,fs1,fa6
    8000374a:	3a9a73c3          	fmadd.d	ft7,fs4,fs1,ft7
    8000374e:	3299f343          	fmadd.d	ft6,fs3,fs1,ft6
    80003752:	2a8b72c3          	fmadd.d	ft5,fs6,fs0,ft5
    80003756:	929c74c3          	fmadd.d	fs1,fs8,fs1,fs2
    8000375a:	228af243          	fmadd.d	ft4,fs5,fs0,ft4
    8000375e:	6a8a76c3          	fmadd.d	fa3,fs4,fs0,fa3
    80003762:	baeb7b43          	fmadd.d	fs6,fs6,fa4,fs7
    80003766:	5a8c7443          	fmadd.d	fs0,fs8,fs0,fa1
    8000376a:	1aeafac3          	fmadd.d	fs5,fs5,fa4,ft3
    8000376e:	12ea7a43          	fmadd.d	fs4,fs4,fa4,ft2
    80003772:	0ae9f9c3          	fmadd.d	fs3,fs3,fa4,ft1
    80003776:	00bb8c33          	add	s8,s7,a1
    8000377a:	02073087          	fld	ft1,32(a4)
    8000377e:	02063007          	fld	ft0,32(a2)
    80003782:	020f3607          	fld	fa2,32(t5)
    80003786:	0203b587          	fld	fa1,32(t2)
    8000378a:	008c3b87          	fld	fs7,8(s8)
    8000378e:	010c3907          	fld	fs2,16(s8)
    80003792:	018c3187          	fld	ft3,24(s8)
    80003796:	020c3107          	fld	ft2,32(s8)
    8000379a:	000c3c07          	fld	fs8,0(s8)
    8000379e:	7ac1f743          	fmadd.d	fa4,ft3,fa2,fa5
    800037a2:	5220fd43          	fmadd.d	fs10,ft1,ft2,fa0
    800037a6:	82bbf843          	fmadd.d	fa6,fs7,fa1,fa6
    800037aa:	3ab973c3          	fmadd.d	ft7,fs2,fa1,ft7
    800037ae:	32b1f343          	fmadd.d	ft6,ft3,fa1,ft6
    800037b2:	22cbf243          	fmadd.d	ft4,fs7,fa2,ft4
    800037b6:	6ac976c3          	fmadd.d	fa3,fs2,fa2,fa3
    800037ba:	42c17443          	fmadd.d	fs0,ft2,fa2,fs0
    800037be:	f370ff43          	fmadd.d	ft10,ft1,fs7,ft10
    800037c2:	eb20fec3          	fmadd.d	ft9,ft1,fs2,ft9
    800037c6:	e230fe43          	fmadd.d	ft8,ft1,ft3,ft8
    800037ca:	aa0bfac3          	fmadd.d	fs5,fs7,ft0,fs5
    800037ce:	a2097a43          	fmadd.d	fs4,fs2,ft0,fs4
    800037d2:	9a01f9c3          	fmadd.d	fs3,ft3,ft0,fs3
    800037d6:	ca017bc3          	fmadd.d	fs7,ft2,ft0,fs9
    800037da:	8abc78c3          	fmadd.d	fa7,fs8,fa1,fa7
    800037de:	2acc72c3          	fmadd.d	ft5,fs8,fa2,ft5
    800037e2:	4ab175c3          	fmadd.d	fa1,ft2,fa1,fs1
    800037e6:	fb80ffc3          	fmadd.d	ft11,ft1,fs8,ft11
    800037ea:	b20c7b43          	fmadd.d	fs6,fs8,ft0,fs6
    800037ee:	97a6                	add	a5,a5,s1
    800037f0:	02873907          	fld	fs2,40(a4)
    800037f4:	3604                	fld	fs1,40(a2)
    800037f6:	0007b187          	fld	ft3,0(a5)
    800037fa:	0283b607          	fld	fa2,40(t2)
    800037fe:	0087b107          	fld	ft2,8(a5)
    80003802:	0107b087          	fld	ft1,16(a5)
    80003806:	0187b007          	fld	ft0,24(a5)
    8000380a:	3388                	fld	fa0,32(a5)
    8000380c:	028f3787          	fld	fa5,40(t5)
    80003810:	03070713          	addi	a4,a4,48
    80003814:	8ac1f8c3          	fmadd.d	fa7,ft3,fa2,fa7
    80003818:	82c17843          	fmadd.d	fa6,ft2,fa2,fa6
    8000381c:	3ac0f3c3          	fmadd.d	ft7,ft1,fa2,ft7
    80003820:	32c07343          	fmadd.d	ft6,ft0,fa2,ft6
    80003824:	2af1f2c3          	fmadd.d	ft5,ft3,fa5,ft5
    80003828:	5ac57643          	fmadd.d	fa2,fa0,fa2,fa1
    8000382c:	22f17243          	fmadd.d	ft4,ft2,fa5,ft4
    80003830:	6af0f6c3          	fmadd.d	fa3,ft1,fa5,fa3
    80003834:	72f07743          	fmadd.d	fa4,ft0,fa5,fa4
    80003838:	fa397fc3          	fmadd.d	ft11,fs2,ft3,ft11
    8000383c:	42f577c3          	fmadd.d	fa5,fa0,fa5,fs0
    80003840:	f2297f43          	fmadd.d	ft10,fs2,ft2,ft10
    80003844:	ea197ec3          	fmadd.d	ft9,fs2,ft1,ft9
    80003848:	e2097e43          	fmadd.d	ft8,fs2,ft0,ft8
    8000384c:	d2a975c3          	fmadd.d	fa1,fs2,fa0,fs10
    80003850:	b291f1c3          	fmadd.d	ft3,ft3,fs1,fs6
    80003854:	aa917143          	fmadd.d	ft2,ft2,fs1,fs5
    80003858:	a290f0c3          	fmadd.d	ft1,ft1,fs1,fs4
    8000385c:	9a907043          	fmadd.d	ft0,ft0,fs1,fs3
    80003860:	ba957543          	fmadd.d	fa0,fa0,fs1,fs7
    80003864:	95d2                	add	a1,a1,s4
    80003866:	97a6                	add	a5,a5,s1
    80003868:	03060613          	addi	a2,a2,48
    8000386c:	d3276ce3          	bltu	a4,s2,800035a4 <mm_cb+0x145e>
    80003870:	f2843383          	ld	t2,-216(s0)
    80003874:	f2043c03          	ld	s8,-224(s0)
    80003878:	f1843f03          	ld	t5,-232(s0)
    8000387c:	09397863          	bgeu	s2,s3,8000390c <mm_cb+0x17c6>
    80003880:	f0843783          	ld	a5,-248(s0)
    80003884:	867e                	mv	a2,t6
    80003886:	874a                	mv	a4,s2
    80003888:	97f6                	add	a5,a5,t4
    8000388a:	01b705b3          	add	a1,a4,s11
    8000388e:	0005b987          	fld	fs3,0(a1)
    80003892:	01b605b3          	add	a1,a2,s11
    80003896:	2304                	fld	fs1,0(a4)
    80003898:	2200                	fld	fs0,0(a2)
    8000389a:	0007bc07          	fld	fs8,0(a5)
    8000389e:	0087bb87          	fld	fs7,8(a5)
    800038a2:	0107bb07          	fld	fs6,16(a5)
    800038a6:	0187ba87          	fld	fs5,24(a5)
    800038aa:	0207ba07          	fld	fs4,32(a5)
    800038ae:	0005b907          	fld	fs2,0(a1)
    800038b2:	0721                	addi	a4,a4,8
    800038b4:	8b3c78c3          	fmadd.d	fa7,fs8,fs3,fa7
    800038b8:	833bf843          	fmadd.d	fa6,fs7,fs3,fa6
    800038bc:	3b3b73c3          	fmadd.d	ft7,fs6,fs3,ft7
    800038c0:	333af343          	fmadd.d	ft6,fs5,fs3,ft6
    800038c4:	633a7643          	fmadd.d	fa2,fs4,fs3,fa2
    800038c8:	2b2c72c3          	fmadd.d	ft5,fs8,fs2,ft5
    800038cc:	232bf243          	fmadd.d	ft4,fs7,fs2,ft4
    800038d0:	6b2b76c3          	fmadd.d	fa3,fs6,fs2,fa3
    800038d4:	732af743          	fmadd.d	fa4,fs5,fs2,fa4
    800038d8:	7b2a77c3          	fmadd.d	fa5,fs4,fs2,fa5
    800038dc:	fb84ffc3          	fmadd.d	ft11,fs1,fs8,ft11
    800038e0:	f374ff43          	fmadd.d	ft10,fs1,fs7,ft10
    800038e4:	eb64fec3          	fmadd.d	ft9,fs1,fs6,ft9
    800038e8:	e354fe43          	fmadd.d	ft8,fs1,fs5,ft8
    800038ec:	5b44f5c3          	fmadd.d	fa1,fs1,fs4,fa1
    800038f0:	1a8c71c3          	fmadd.d	ft3,fs8,fs0,ft3
    800038f4:	128bf143          	fmadd.d	ft2,fs7,fs0,ft2
    800038f8:	0a8b70c3          	fmadd.d	ft1,fs6,fs0,ft1
    800038fc:	028af043          	fmadd.d	ft0,fs5,fs0,ft0
    80003900:	528a7543          	fmadd.d	fa0,fs4,fs0,fa0
    80003904:	97e2                	add	a5,a5,s8
    80003906:	0621                	addi	a2,a2,8
    80003908:	f93761e3          	bltu	a4,s3,8000388a <mm_cb+0x1744>
    8000390c:	01fe3027          	fsd	ft11,0(t3)
    80003910:	01ee3427          	fsd	ft10,8(t3)
    80003914:	01de3827          	fsd	ft9,16(t3)
    80003918:	01ce3c27          	fsd	ft8,24(t3)
    8000391c:	02be3027          	fsd	fa1,32(t3)
    80003920:	0036b027          	fsd	ft3,0(a3)
    80003924:	0026b427          	fsd	ft2,8(a3)
    80003928:	0016b827          	fsd	ft1,16(a3)
    8000392c:	0006bc27          	fsd	ft0,24(a3)
    80003930:	b288                	fsd	fa0,32(a3)
    80003932:	e7843783          	ld	a5,-392(s0)
    80003936:	01133027          	fsd	fa7,0(t1)
    8000393a:	01033427          	fsd	fa6,8(t1)
    8000393e:	00733827          	fsd	ft7,16(t1)
    80003942:	00633c27          	fsd	ft6,24(t1)
    80003946:	02c33027          	fsd	fa2,32(t1)
    8000394a:	00583027          	fsd	ft5,0(a6)
    8000394e:	00483427          	fsd	ft4,8(a6)
    80003952:	00d83827          	fsd	fa3,16(a6)
    80003956:	00e83c27          	fsd	fa4,24(a6)
    8000395a:	02f83027          	fsd	fa5,32(a6)
    8000395e:	0f15                	addi	t5,t5,5
    80003960:	028e0e13          	addi	t3,t3,40
    80003964:	02868693          	addi	a3,a3,40
    80003968:	02830313          	addi	t1,t1,40
    8000396c:	02880813          	addi	a6,a6,40
    80003970:	028e8e93          	addi	t4,t4,40
    80003974:	bcff64e3          	bltu	t5,a5,8000353c <mm_cb+0x13f6>
    80003978:	87aa                	mv	a5,a0
    8000397a:	6018                	ld	a4,0(s0)
    8000397c:	86e6                	mv	a3,s9
    8000397e:	861e                	mv	a2,t2
    80003980:	e03a                	sd	a4,0(sp)
    80003982:	e2843703          	ld	a4,-472(s0)
    80003986:	ec843803          	ld	a6,-312(s0)
    8000398a:	de843583          	ld	a1,-536(s0)
    8000398e:	98ba                	add	a7,a7,a4
    80003990:	ee043703          	ld	a4,-288(s0)
    80003994:	f2f43023          	sd	a5,-224(s0)
    80003998:	f2743423          	sd	t2,-216(s0)
    8000399c:	4511                	li	a0,4
    8000399e:	e62fe0ef          	jal	80002000 <mm_naive>
    800039a2:	f0043783          	ld	a5,-256(s0)
    800039a6:	f2843383          	ld	t2,-216(s0)
    800039aa:	fff78713          	addi	a4,a5,-1
    800039ae:	e3843783          	ld	a5,-456(s0)
    800039b2:	f0e43023          	sd	a4,-256(s0)
    800039b6:	9cbe                	add	s9,s9,a5
    800039b8:	993e                	add	s2,s2,a5
    800039ba:	99be                	add	s3,s3,a5
    800039bc:	dc043783          	ld	a5,-576(s0)
    800039c0:	9b3e                	add	s6,s6,a5
    800039c2:	f2043783          	ld	a5,-224(s0)
    800039c6:	b2071ae3          	bnez	a4,800034fa <mm_cb+0x13b4>
    800039ca:	601c                	ld	a5,0(s0)
    800039cc:	8b6a                	mv	s6,s10
    800039ce:	d9843d03          	ld	s10,-616(s0)
    800039d2:	e03e                	sd	a5,0(sp)
    800039d4:	f1043903          	ld	s2,-240(s0)
    800039d8:	da843683          	ld	a3,-600(s0)
    800039dc:	ee043703          	ld	a4,-288(s0)
    800039e0:	ef843883          	ld	a7,-264(s0)
    800039e4:	ec843803          	ld	a6,-312(s0)
    800039e8:	e2043583          	ld	a1,-480(s0)
    800039ec:	87ca                	mv	a5,s2
    800039ee:	96da                	add	a3,a3,s6
    800039f0:	861e                	mv	a2,t2
    800039f2:	4501                	li	a0,0
    800039f4:	e0cfe0ef          	jal	80002000 <mm_naive>
    800039f8:	da043703          	ld	a4,-608(s0)
    800039fc:	0d61                	addi	s10,s10,24
    800039fe:	0c0b0b13          	addi	s6,s6,192
    80003a02:	00e907b3          	add	a5,s2,a4
    80003a06:	f0f43823          	sd	a5,-240(s0)
    80003a0a:	ed043783          	ld	a5,-304(s0)
    80003a0e:	a8fd69e3          	bltu	s10,a5,800034a0 <mm_cb+0x135a>
    80003a12:	e0843b03          	ld	s6,-504(s0)
    80003a16:	ef843e83          	ld	t4,-264(s0)
    80003a1a:	e0043a03          	ld	s4,-512(s0)
    80003a1e:	df843903          	ld	s2,-520(s0)
    80003a22:	df043983          	ld	s3,-528(s0)
    80003a26:	902ff06f          	j	80002b28 <mm_cb+0x9e2>
    80003a2a:	f1043b03          	ld	s6,-240(s0)
    80003a2e:	f0843a03          	ld	s4,-248(s0)
    80003a32:	f0043903          	ld	s2,-256(s0)
    80003a36:	ef843983          	ld	s3,-264(s0)
    80003a3a:	8daff06f          	j	80002b14 <mm_cb+0x9ce>
    80003a3e:	000e17b7          	lui	a5,0xe1
    80003a42:	47b78793          	addi	a5,a5,1147 # e147b <buflen.1+0xe13fb>
    80003a46:	23d715b7          	lui	a1,0x23d71
    80003a4a:	07b2                	slli	a5,a5,0xc
    80003a4c:	a3d58593          	addi	a1,a1,-1475 # 23d70a3d <buflen.1+0x23d709bd>
    80003a50:	e1578793          	addi	a5,a5,-491
    80003a54:	1586                	slli	a1,a1,0x21
    80003a56:	aaaab737          	lui	a4,0xaaaab
    80003a5a:	95be                	add	a1,a1,a5
    80003a5c:	601c                	ld	a5,0(s0)
    80003a5e:	aab70713          	addi	a4,a4,-1365 # ffffffffaaaaaaab <__global_pointer$+0xffffffff2aaa4ecb>
    80003a62:	02071293          	slli	t0,a4,0x20
    80003a66:	6f05                	lui	t5,0x1
    80003a68:	92ba                	add	t0,t0,a4
    80003a6a:	00379493          	slli	s1,a5,0x3
    80003a6e:	2c0f0f13          	addi	t5,t5,704 # 12c0 <buflen.1+0x1240>
    80003a72:	25800393          	li	t2,600
    80003a76:	0258b833          	mulhu	a6,a7,t0
    80003a7a:	ec043783          	ld	a5,-320(s0)
    80003a7e:	00331e93          	slli	t4,t1,0x3
    80003a82:	9eca                	add	t4,t4,s2
    80003a84:	4e01                	li	t3,0
    80003a86:	00485813          	srli	a6,a6,0x4
    80003a8a:	02f80833          	mul	a6,a6,a5
    80003a8e:	0c0e8613          	addi	a2,t4,192
    80003a92:	4f81                	li	t6,0
    80003a94:	02be37b3          	mulhu	a5,t3,a1
    80003a98:	40fe0733          	sub	a4,t3,a5
    80003a9c:	8305                	srli	a4,a4,0x1
    80003a9e:	00e786b3          	add	a3,a5,a4
    80003aa2:	8291                	srli	a3,a3,0x4
    80003aa4:	96c2                	add	a3,a3,a6
    80003aa6:	03e686b3          	mul	a3,a3,t5
    80003aaa:	eb043783          	ld	a5,-336(s0)
    80003aae:	96be                	add	a3,a3,a5
    80003ab0:	f4060793          	addi	a5,a2,-192
    80003ab4:	8736                	mv	a4,a3
    80003ab6:	00073087          	fld	ft1,0(a4)
    80003aba:	00873007          	fld	ft0,8(a4)
    80003abe:	2b08                	fld	fa0,16(a4)
    80003ac0:	2f0c                	fld	fa1,24(a4)
    80003ac2:	3310                	fld	fa2,32(a4)
    80003ac4:	3714                	fld	fa3,40(a4)
    80003ac6:	3b18                	fld	fa4,48(a4)
    80003ac8:	3f1c                	fld	fa5,56(a4)
    80003aca:	04078793          	addi	a5,a5,64
    80003ace:	fc17b027          	fsd	ft1,-64(a5)
    80003ad2:	fc07b427          	fsd	ft0,-56(a5)
    80003ad6:	fca7b827          	fsd	fa0,-48(a5)
    80003ada:	fcb7bc27          	fsd	fa1,-40(a5)
    80003ade:	fec7b027          	fsd	fa2,-32(a5)
    80003ae2:	fed7b427          	fsd	fa3,-24(a5)
    80003ae6:	fee7b827          	fsd	fa4,-16(a5)
    80003aea:	fef7bc27          	fsd	fa5,-8(a5)
    80003aee:	04070713          	addi	a4,a4,64
    80003af2:	fcc792e3          	bne	a5,a2,80003ab6 <mm_cb+0x1970>
    80003af6:	22fc                	fld	fa5,192(a3)
    80003af8:	0fe5                	addi	t6,t6,25
    80003afa:	0c868693          	addi	a3,a3,200
    80003afe:	a39c                	fsd	fa5,0(a5)
    80003b00:	00978633          	add	a2,a5,s1
    80003b04:	fa7f96e3          	bne	t6,t2,80003ab0 <mm_cb+0x196a>
    80003b08:	ed843783          	ld	a5,-296(s0)
    80003b0c:	0e65                	addi	t3,t3,25
    80003b0e:	0c8e8e93          	addi	t4,t4,200
    80003b12:	f6fe6ee3          	bltu	t3,a5,80003a8e <mm_cb+0x1948>
    80003b16:	ee843783          	ld	a5,-280(s0)
    80003b1a:	08e1                	addi	a7,a7,24
    80003b1c:	932a                	add	t1,t1,a0
    80003b1e:	f4f8ece3          	bltu	a7,a5,80003a76 <mm_cb+0x1930>
    80003b22:	8aaff06f          	j	80002bcc <mm_cb+0xa86>
    80003b26:	aaaab7b7          	lui	a5,0xaaaab
    80003b2a:	aab78793          	addi	a5,a5,-1365 # ffffffffaaaaaaab <__global_pointer$+0xffffffff2aaa4ecb>
    80003b2e:	02079713          	slli	a4,a5,0x20
    80003b32:	97ba                	add	a5,a5,a4
    80003b34:	02fa3733          	mulhu	a4,s4,a5
    80003b38:	e6f43023          	sd	a5,-416(s0)
    80003b3c:	00181793          	slli	a5,a6,0x1
    80003b40:	97c2                	add	a5,a5,a6
    80003b42:	00479993          	slli	s3,a5,0x4
    80003b46:	079a                	slli	a5,a5,0x6
    80003b48:	ccccd6b7          	lui	a3,0xccccd
    80003b4c:	e4f43c23          	sd	a5,-424(s0)
    80003b50:	ccd68693          	addi	a3,a3,-819 # ffffffffcccccccd <__global_pointer$+0xffffffff4ccc70ed>
    80003b54:	ee043503          	ld	a0,-288(s0)
    80003b58:	8311                	srli	a4,a4,0x4
    80003b5a:	00171793          	slli	a5,a4,0x1
    80003b5e:	97ba                	add	a5,a5,a4
    80003b60:	078e                	slli	a5,a5,0x3
    80003b62:	02069613          	slli	a2,a3,0x20
    80003b66:	40fa0733          	sub	a4,s4,a5
    80003b6a:	96b2                	add	a3,a3,a2
    80003b6c:	e4d43823          	sd	a3,-432(s0)
    80003b70:	ffc77693          	andi	a3,a4,-4
    80003b74:	8b0d                	andi	a4,a4,3
    80003b76:	02d507b3          	mul	a5,a0,a3
    80003b7a:	eae43423          	sd	a4,-344(s0)
    80003b7e:	6018                	ld	a4,0(s0)
    80003b80:	00351893          	slli	a7,a0,0x3
    80003b84:	ecd43823          	sd	a3,-304(s0)
    80003b88:	00471a13          	slli	s4,a4,0x4
    80003b8c:	00551713          	slli	a4,a0,0x5
    80003b90:	e6e43823          	sd	a4,-400(s0)
    80003b94:	6018                	ld	a4,0(s0)
    80003b96:	e5243023          	sd	s2,-448(s0)
    80003b9a:	078e                	slli	a5,a5,0x3
    80003b9c:	070a                	slli	a4,a4,0x2
    80003b9e:	e6e43c23          	sd	a4,-392(s0)
    80003ba2:	6018                	ld	a4,0(s0)
    80003ba4:	eaf43023          	sd	a5,-352(s0)
    80003ba8:	ee843783          	ld	a5,-280(s0)
    80003bac:	02d70733          	mul	a4,a4,a3
    80003bb0:	e7143423          	sd	a7,-408(s0)
    80003bb4:	00451a93          	slli	s5,a0,0x4
    80003bb8:	00481b13          	slli	s6,a6,0x4
    80003bbc:	00381d93          	slli	s11,a6,0x3
    80003bc0:	86ae                	mv	a3,a1
    80003bc2:	00581913          	slli	s2,a6,0x5
    80003bc6:	8d4e                	mv	s10,s3
    80003bc8:	031787b3          	mul	a5,a5,a7
    80003bcc:	00371c93          	slli	s9,a4,0x3
    80003bd0:	e9043703          	ld	a4,-368(s0)
    80003bd4:	00f70bb3          	add	s7,a4,a5
    80003bd8:	40968533          	sub	a0,a3,s1
    80003bdc:	47e5                	li	a5,25
    80003bde:	85aa                	mv	a1,a0
    80003be0:	00a7f363          	bgeu	a5,a0,80003be6 <mm_cb+0x1aa0>
    80003be4:	85be                	mv	a1,a5
    80003be6:	e5043783          	ld	a5,-432(s0)
    80003bea:	f0843603          	ld	a2,-248(s0)
    80003bee:	00349713          	slli	a4,s1,0x3
    80003bf2:	02f5b7b3          	mulhu	a5,a1,a5
    80003bf6:	9762                	add	a4,a4,s8
    80003bf8:	f0e43023          	sd	a4,-256(s0)
    80003bfc:	00cc8733          	add	a4,s9,a2
    80003c00:	e8e43c23          	sd	a4,-360(s0)
    80003c04:	01460733          	add	a4,a2,s4
    80003c08:	e8e43423          	sd	a4,-376(s0)
    80003c0c:	f1043703          	ld	a4,-240(s0)
    80003c10:	e3943023          	sd	s9,-480(s0)
    80003c14:	e1443823          	sd	s4,-496(s0)
    80003c18:	9752                	add	a4,a4,s4
    80003c1a:	e8e43823          	sd	a4,-368(s0)
    80003c1e:	0027d713          	srli	a4,a5,0x2
    80003c22:	9bf1                	andi	a5,a5,-4
    80003c24:	00e78333          	add	t1,a5,a4
    80003c28:	00331793          	slli	a5,t1,0x3
    80003c2c:	e4f43423          	sd	a5,-440(s0)
    80003c30:	97b2                	add	a5,a5,a2
    80003c32:	e8f43023          	sd	a5,-384(s0)
    80003c36:	406587b3          	sub	a5,a1,t1
    80003c3a:	eaf43c23          	sd	a5,-328(s0)
    80003c3e:	e2a43c23          	sd	a0,-456(s0)
    80003c42:	e2b43823          	sd	a1,-464(s0)
    80003c46:	e2943423          	sd	s1,-472(s0)
    80003c4a:	4c81                	li	s9,0
    80003c4c:	e1743c23          	sd	s7,-488(s0)
    80003c50:	8a1a                	mv	s4,t1
    80003c52:	e0d43423          	sd	a3,-504(s0)
    80003c56:	e1843023          	sd	s8,-512(s0)
    80003c5a:	ef043823          	sd	a6,-272(s0)
    80003c5e:	419e8633          	sub	a2,t4,s9
    80003c62:	47e1                	li	a5,24
    80003c64:	00c7f363          	bgeu	a5,a2,80003c6a <mm_cb+0x1b24>
    80003c68:	863e                	mv	a2,a5
    80003c6a:	ed043783          	ld	a5,-304(s0)
    80003c6e:	52078b63          	beqz	a5,800041a4 <mm_cb+0x205e>
    80003c72:	e6043783          	ld	a5,-416(s0)
    80003c76:	f0043683          	ld	a3,-256(s0)
    80003c7a:	00361993          	slli	s3,a2,0x3
    80003c7e:	02f63733          	mulhu	a4,a2,a5
    80003c82:	e4843783          	ld	a5,-440(s0)
    80003c86:	99de                	add	s3,s3,s7
    80003c88:	8c5e                	mv	s8,s7
    80003c8a:	97b6                	add	a5,a5,a3
    80003c8c:	ef043683          	ld	a3,-272(s0)
    80003c90:	df943c23          	sd	s9,-520(s0)
    80003c94:	ee043c23          	sd	zero,-264(s0)
    80003c98:	8cde                	mv	s9,s7
    80003c9a:	ec043423          	sd	zero,-312(s0)
    80003c9e:	8309                	srli	a4,a4,0x2
    80003ca0:	02e686b3          	mul	a3,a3,a4
    80003ca4:	00171493          	slli	s1,a4,0x1
    80003ca8:	94ba                	add	s1,s1,a4
    80003caa:	0492                	slli	s1,s1,0x4
    80003cac:	94de                	add	s1,s1,s7
    80003cae:	83b2                	mv	t2,a2
    80003cb0:	dfd43823          	sd	t4,-528(s0)
    80003cb4:	00169713          	slli	a4,a3,0x1
    80003cb8:	9736                	add	a4,a4,a3
    80003cba:	00471b93          	slli	s7,a4,0x4
    80003cbe:	e3843703          	ld	a4,-456(s0)
    80003cc2:	4691                	li	a3,4
    80003cc4:	56e6f563          	bgeu	a3,a4,8000422e <mm_cb+0x20e8>
    80003cc8:	ef843703          	ld	a4,-264(s0)
    80003ccc:	f0043e83          	ld	t4,-256(s0)
    80003cd0:	4f01                	li	t5,0
    80003cd2:	00371893          	slli	a7,a4,0x3
    80003cd6:	f0843703          	ld	a4,-248(s0)
    80003cda:	853e                	mv	a0,a5
    80003cdc:	01170e33          	add	t3,a4,a7
    80003ce0:	f1043703          	ld	a4,-240(s0)
    80003ce4:	011706b3          	add	a3,a4,a7
    80003ce8:	e8843703          	ld	a4,-376(s0)
    80003cec:	01170333          	add	t1,a4,a7
    80003cf0:	e9043703          	ld	a4,-368(s0)
    80003cf4:	01170833          	add	a6,a4,a7
    80003cf8:	e6843703          	ld	a4,-408(s0)
    80003cfc:	00ec02b3          	add	t0,s8,a4
    80003d00:	00e48fb3          	add	t6,s1,a4
    80003d04:	000e3f87          	fld	ft11,0(t3)
    80003d08:	008e3f07          	fld	ft10,8(t3)
    80003d0c:	010e3e87          	fld	ft9,16(t3)
    80003d10:	018e3e07          	fld	ft8,24(t3)
    80003d14:	020e3587          	fld	fa1,32(t3)
    80003d18:	0006b187          	fld	ft3,0(a3)
    80003d1c:	0086b107          	fld	ft2,8(a3)
    80003d20:	0106b087          	fld	ft1,16(a3)
    80003d24:	0186b007          	fld	ft0,24(a3)
    80003d28:	3288                	fld	fa0,32(a3)
    80003d2a:	00033887          	fld	fa7,0(t1)
    80003d2e:	00833807          	fld	fa6,8(t1)
    80003d32:	01033387          	fld	ft7,16(t1)
    80003d36:	01833307          	fld	ft6,24(t1)
    80003d3a:	02033607          	fld	fa2,32(t1)
    80003d3e:	00083287          	fld	ft5,0(a6)
    80003d42:	00883207          	fld	ft4,8(a6)
    80003d46:	01083687          	fld	fa3,16(a6)
    80003d4a:	01883707          	fld	fa4,24(a6)
    80003d4e:	02083787          	fld	fa5,32(a6)
    80003d52:	2e9c7963          	bgeu	s8,s1,80004044 <mm_cb+0x1efe>
    80003d56:	85f6                	mv	a1,t4
    80003d58:	01be87b3          	add	a5,t4,s11
    80003d5c:	8616                	mv	a2,t0
    80003d5e:	8762                	mv	a4,s8
    80003d60:	f2743423          	sd	t2,-216(s0)
    80003d64:	f3443023          	sd	s4,-224(s0)
    80003d68:	f1e43c23          	sd	t5,-232(s0)
    80003d6c:	015703b3          	add	t2,a4,s5
    80003d70:	0003b407          	fld	fs0,0(t2)
    80003d74:	0005bb87          	fld	fs7,0(a1)
    80003d78:	0085bb07          	fld	fs6,8(a1)
    80003d7c:	0105ba87          	fld	fs5,16(a1)
    80003d80:	0185ba07          	fld	fs4,24(a1)
    80003d84:	0205b987          	fld	fs3,32(a1)
    80003d88:	01560f33          	add	t5,a2,s5
    80003d8c:	2304                	fld	fs1,0(a4)
    80003d8e:	000f3907          	fld	fs2,0(t5)
    80003d92:	6289f643          	fmadd.d	fa2,fs3,fs0,fa2
    80003d96:	8a8bf8c3          	fmadd.d	fa7,fs7,fs0,fa7
    80003d9a:	828b7843          	fmadd.d	fa6,fs6,fs0,fa6
    80003d9e:	3a8af3c3          	fmadd.d	ft7,fs5,fs0,ft7
    80003da2:	328a7343          	fmadd.d	ft6,fs4,fs0,ft6
    80003da6:	2200                	fld	fs0,0(a2)
    80003da8:	7b29f7c3          	fmadd.d	fa5,fs3,fs2,fa5
    80003dac:	5b34f5c3          	fmadd.d	fa1,fs1,fs3,fa1
    80003db0:	1a8bf1c3          	fmadd.d	ft3,fs7,fs0,ft3
    80003db4:	128b7143          	fmadd.d	ft2,fs6,fs0,ft2
    80003db8:	0a8af0c3          	fmadd.d	ft1,fs5,fs0,ft1
    80003dbc:	028a7043          	fmadd.d	ft0,fs4,fs0,ft0
    80003dc0:	2b2bf2c3          	fmadd.d	ft5,fs7,fs2,ft5
    80003dc4:	fb74ffc3          	fmadd.d	ft11,fs1,fs7,ft11
    80003dc8:	232b7243          	fmadd.d	ft4,fs6,fs2,ft4
    80003dcc:	f364ff43          	fmadd.d	ft10,fs1,fs6,ft10
    80003dd0:	6b2af6c3          	fmadd.d	fa3,fs5,fs2,fa3
    80003dd4:	eb54fec3          	fmadd.d	ft9,fs1,fs5,ft9
    80003dd8:	732a7743          	fmadd.d	fa4,fs4,fs2,fa4
    80003ddc:	e344fe43          	fmadd.d	ft8,fs1,fs4,ft8
    80003de0:	5289f543          	fmadd.d	fa0,fs3,fs0,fa0
    80003de4:	00863b87          	fld	fs7,8(a2)
    80003de8:	2700                	fld	fs0,8(a4)
    80003dea:	0207bc07          	fld	fs8,32(a5)
    80003dee:	0083b907          	fld	fs2,8(t2)
    80003df2:	0007bb07          	fld	fs6,0(a5)
    80003df6:	008f3487          	fld	fs1,8(t5)
    80003dfa:	0087ba87          	fld	fs5,8(a5)
    80003dfe:	0107ba07          	fld	fs4,16(a5)
    80003e02:	0187b987          	fld	fs3,24(a5)
    80003e06:	537c7543          	fmadd.d	fa0,fs8,fs7,fa0
    80003e0a:	8b2b78c3          	fmadd.d	fa7,fs6,fs2,fa7
    80003e0e:	7299f743          	fmadd.d	fa4,fs3,fs1,fa4
    80003e12:	2a9b72c3          	fmadd.d	ft5,fs6,fs1,ft5
    80003e16:	fb647fc3          	fmadd.d	ft11,fs0,fs6,ft11
    80003e1a:	832af843          	fmadd.d	fa6,fs5,fs2,fa6
    80003e1e:	1b7b7b43          	fmadd.d	fs6,fs6,fs7,ft3
    80003e22:	229af243          	fmadd.d	ft4,fs5,fs1,ft4
    80003e26:	f3547f43          	fmadd.d	ft10,fs0,fs5,ft10
    80003e2a:	3b2a73c3          	fmadd.d	ft7,fs4,fs2,ft7
    80003e2e:	137afac3          	fmadd.d	fs5,fs5,fs7,ft2
    80003e32:	6a9a76c3          	fmadd.d	fa3,fs4,fs1,fa3
    80003e36:	eb447ec3          	fmadd.d	ft9,fs0,fs4,ft9
    80003e3a:	7a9c74c3          	fmadd.d	fs1,fs8,fs1,fa5
    80003e3e:	0b7a7a43          	fmadd.d	fs4,fs4,fs7,ft1
    80003e42:	3329f343          	fmadd.d	ft6,fs3,fs2,ft6
    80003e46:	e3347e43          	fmadd.d	ft8,fs0,fs3,ft8
    80003e4a:	632c7943          	fmadd.d	fs2,fs8,fs2,fa2
    80003e4e:	5b847443          	fmadd.d	fs0,fs0,fs8,fa1
    80003e52:	0379f9c3          	fmadd.d	fs3,fs3,fs7,ft0
    80003e56:	01658a33          	add	s4,a1,s6
    80003e5a:	0103b787          	fld	fa5,16(t2)
    80003e5e:	01073007          	fld	ft0,16(a4)
    80003e62:	2a10                	fld	fa2,16(a2)
    80003e64:	000a3b87          	fld	fs7,0(s4)
    80003e68:	008a3187          	fld	ft3,8(s4)
    80003e6c:	010a3107          	fld	ft2,16(s4)
    80003e70:	018a3087          	fld	ft1,24(s4)
    80003e74:	020a3c07          	fld	fs8,32(s4)
    80003e78:	010f3587          	fld	fa1,16(t5)
    80003e7c:	8afbf8c3          	fmadd.d	fa7,fs7,fa5,fa7
    80003e80:	92fc7943          	fmadd.d	fs2,fs8,fa5,fs2
    80003e84:	2abbf2c3          	fmadd.d	ft5,fs7,fa1,ft5
    80003e88:	82f1f843          	fmadd.d	fa6,ft3,fa5,fa6
    80003e8c:	22b1f243          	fmadd.d	ft4,ft3,fa1,ft4
    80003e90:	3af173c3          	fmadd.d	ft7,ft2,fa5,ft7
    80003e94:	6ab176c3          	fmadd.d	fa3,ft2,fa1,fa3
    80003e98:	32f0f343          	fmadd.d	ft6,ft1,fa5,ft6
    80003e9c:	fb707fc3          	fmadd.d	ft11,ft0,fs7,ft11
    80003ea0:	72b0f7c3          	fmadd.d	fa5,ft1,fa1,fa4
    80003ea4:	b2cbfbc3          	fmadd.d	fs7,fs7,fa2,fs6
    80003ea8:	4abc75c3          	fmadd.d	fa1,fs8,fa1,fs1
    80003eac:	f2307f43          	fmadd.d	ft10,ft0,ft3,ft10
    80003eb0:	ea207ec3          	fmadd.d	ft9,ft0,ft2,ft9
    80003eb4:	aac1f1c3          	fmadd.d	ft3,ft3,fa2,fs5
    80003eb8:	a2c17143          	fmadd.d	ft2,ft2,fa2,fs4
    80003ebc:	e2107e43          	fmadd.d	ft8,ft0,ft1,ft8
    80003ec0:	43807043          	fmadd.d	ft0,ft0,fs8,fs0
    80003ec4:	9ac0f0c3          	fmadd.d	ft1,ft1,fa2,fs3
    80003ec8:	52cc7643          	fmadd.d	fa2,fs8,fa2,fa0
    80003ecc:	97da                	add	a5,a5,s6
    80003ece:	2f08                	fld	fa0,24(a4)
    80003ed0:	0007bb07          	fld	fs6,0(a5)
    80003ed4:	0087ba87          	fld	fs5,8(a5)
    80003ed8:	0107ba07          	fld	fs4,16(a5)
    80003edc:	0187b987          	fld	fs3,24(a5)
    80003ee0:	0207bc07          	fld	fs8,32(a5)
    80003ee4:	2e18                	fld	fa4,24(a2)
    80003ee6:	0183b487          	fld	fs1,24(t2)
    80003eea:	018f3407          	fld	fs0,24(t5)
    80003eee:	62ec7cc3          	fmadd.d	fs9,fs8,fa4,fa2
    80003ef2:	fb657fc3          	fmadd.d	ft11,fa0,fs6,ft11
    80003ef6:	7a89f7c3          	fmadd.d	fa5,fs3,fs0,fa5
    80003efa:	f3557f43          	fmadd.d	ft10,fa0,fs5,ft10
    80003efe:	eb457ec3          	fmadd.d	ft9,fa0,fs4,ft9
    80003f02:	e3357e43          	fmadd.d	ft8,fa0,fs3,ft8
    80003f06:	8a9b78c3          	fmadd.d	fa7,fs6,fs1,fa7
    80003f0a:	03857543          	fmadd.d	fa0,fa0,fs8,ft0
    80003f0e:	829af843          	fmadd.d	fa6,fs5,fs1,fa6
    80003f12:	3a9a73c3          	fmadd.d	ft7,fs4,fs1,ft7
    80003f16:	3299f343          	fmadd.d	ft6,fs3,fs1,ft6
    80003f1a:	2a8b72c3          	fmadd.d	ft5,fs6,fs0,ft5
    80003f1e:	929c74c3          	fmadd.d	fs1,fs8,fs1,fs2
    80003f22:	228af243          	fmadd.d	ft4,fs5,fs0,ft4
    80003f26:	6a8a76c3          	fmadd.d	fa3,fs4,fs0,fa3
    80003f2a:	baeb7b43          	fmadd.d	fs6,fs6,fa4,fs7
    80003f2e:	5a8c7443          	fmadd.d	fs0,fs8,fs0,fa1
    80003f32:	1aeafac3          	fmadd.d	fs5,fs5,fa4,ft3
    80003f36:	12ea7a43          	fmadd.d	fs4,fs4,fa4,ft2
    80003f3a:	0ae9f9c3          	fmadd.d	fs3,fs3,fa4,ft1
    80003f3e:	01258a33          	add	s4,a1,s2
    80003f42:	02073087          	fld	ft1,32(a4)
    80003f46:	02063007          	fld	ft0,32(a2)
    80003f4a:	020f3607          	fld	fa2,32(t5)
    80003f4e:	0203b587          	fld	fa1,32(t2)
    80003f52:	008a3b87          	fld	fs7,8(s4)
    80003f56:	010a3907          	fld	fs2,16(s4)
    80003f5a:	018a3187          	fld	ft3,24(s4)
    80003f5e:	020a3107          	fld	ft2,32(s4)
    80003f62:	000a3c07          	fld	fs8,0(s4)
    80003f66:	7ac1f743          	fmadd.d	fa4,ft3,fa2,fa5
    80003f6a:	5220fd43          	fmadd.d	fs10,ft1,ft2,fa0
    80003f6e:	82bbf843          	fmadd.d	fa6,fs7,fa1,fa6
    80003f72:	3ab973c3          	fmadd.d	ft7,fs2,fa1,ft7
    80003f76:	32b1f343          	fmadd.d	ft6,ft3,fa1,ft6
    80003f7a:	22cbf243          	fmadd.d	ft4,fs7,fa2,ft4
    80003f7e:	6ac976c3          	fmadd.d	fa3,fs2,fa2,fa3
    80003f82:	42c17443          	fmadd.d	fs0,ft2,fa2,fs0
    80003f86:	f370ff43          	fmadd.d	ft10,ft1,fs7,ft10
    80003f8a:	eb20fec3          	fmadd.d	ft9,ft1,fs2,ft9
    80003f8e:	e230fe43          	fmadd.d	ft8,ft1,ft3,ft8
    80003f92:	aa0bfac3          	fmadd.d	fs5,fs7,ft0,fs5
    80003f96:	a2097a43          	fmadd.d	fs4,fs2,ft0,fs4
    80003f9a:	9a01f9c3          	fmadd.d	fs3,ft3,ft0,fs3
    80003f9e:	ca017bc3          	fmadd.d	fs7,ft2,ft0,fs9
    80003fa2:	8abc78c3          	fmadd.d	fa7,fs8,fa1,fa7
    80003fa6:	2acc72c3          	fmadd.d	ft5,fs8,fa2,ft5
    80003faa:	4ab175c3          	fmadd.d	fa1,ft2,fa1,fs1
    80003fae:	fb80ffc3          	fmadd.d	ft11,ft1,fs8,ft11
    80003fb2:	b20c7b43          	fmadd.d	fs6,fs8,ft0,fs6
    80003fb6:	97da                	add	a5,a5,s6
    80003fb8:	02873907          	fld	fs2,40(a4)
    80003fbc:	3604                	fld	fs1,40(a2)
    80003fbe:	0007b187          	fld	ft3,0(a5)
    80003fc2:	0283b607          	fld	fa2,40(t2)
    80003fc6:	0087b107          	fld	ft2,8(a5)
    80003fca:	0107b087          	fld	ft1,16(a5)
    80003fce:	0187b007          	fld	ft0,24(a5)
    80003fd2:	3388                	fld	fa0,32(a5)
    80003fd4:	028f3787          	fld	fa5,40(t5)
    80003fd8:	03070713          	addi	a4,a4,48
    80003fdc:	8ac1f8c3          	fmadd.d	fa7,ft3,fa2,fa7
    80003fe0:	82c17843          	fmadd.d	fa6,ft2,fa2,fa6
    80003fe4:	3ac0f3c3          	fmadd.d	ft7,ft1,fa2,ft7
    80003fe8:	32c07343          	fmadd.d	ft6,ft0,fa2,ft6
    80003fec:	2af1f2c3          	fmadd.d	ft5,ft3,fa5,ft5
    80003ff0:	5ac57643          	fmadd.d	fa2,fa0,fa2,fa1
    80003ff4:	22f17243          	fmadd.d	ft4,ft2,fa5,ft4
    80003ff8:	6af0f6c3          	fmadd.d	fa3,ft1,fa5,fa3
    80003ffc:	72f07743          	fmadd.d	fa4,ft0,fa5,fa4
    80004000:	fa397fc3          	fmadd.d	ft11,fs2,ft3,ft11
    80004004:	42f577c3          	fmadd.d	fa5,fa0,fa5,fs0
    80004008:	f2297f43          	fmadd.d	ft10,fs2,ft2,ft10
    8000400c:	ea197ec3          	fmadd.d	ft9,fs2,ft1,ft9
    80004010:	e2097e43          	fmadd.d	ft8,fs2,ft0,ft8
    80004014:	d2a975c3          	fmadd.d	fa1,fs2,fa0,fs10
    80004018:	b291f1c3          	fmadd.d	ft3,ft3,fs1,fs6
    8000401c:	aa917143          	fmadd.d	ft2,ft2,fs1,fs5
    80004020:	a290f0c3          	fmadd.d	ft1,ft1,fs1,fs4
    80004024:	9a907043          	fmadd.d	ft0,ft0,fs1,fs3
    80004028:	ba957543          	fmadd.d	fa0,fa0,fs1,fs7
    8000402c:	95ea                	add	a1,a1,s10
    8000402e:	97da                	add	a5,a5,s6
    80004030:	03060613          	addi	a2,a2,48
    80004034:	d2976ce3          	bltu	a4,s1,80003d6c <mm_cb+0x1c26>
    80004038:	f2843383          	ld	t2,-216(s0)
    8000403c:	f2043a03          	ld	s4,-224(s0)
    80004040:	f1843f03          	ld	t5,-232(s0)
    80004044:	0934f763          	bgeu	s1,s3,800040d2 <mm_cb+0x1f8c>
    80004048:	01db87b3          	add	a5,s7,t4
    8000404c:	867e                	mv	a2,t6
    8000404e:	8726                	mv	a4,s1
    80004050:	015705b3          	add	a1,a4,s5
    80004054:	0005b987          	fld	fs3,0(a1)
    80004058:	015605b3          	add	a1,a2,s5
    8000405c:	2304                	fld	fs1,0(a4)
    8000405e:	2200                	fld	fs0,0(a2)
    80004060:	0007bc07          	fld	fs8,0(a5)
    80004064:	0087bb87          	fld	fs7,8(a5)
    80004068:	0107bb07          	fld	fs6,16(a5)
    8000406c:	0187ba87          	fld	fs5,24(a5)
    80004070:	0207ba07          	fld	fs4,32(a5)
    80004074:	0005b907          	fld	fs2,0(a1)
    80004078:	0721                	addi	a4,a4,8
    8000407a:	8b3c78c3          	fmadd.d	fa7,fs8,fs3,fa7
    8000407e:	833bf843          	fmadd.d	fa6,fs7,fs3,fa6
    80004082:	3b3b73c3          	fmadd.d	ft7,fs6,fs3,ft7
    80004086:	333af343          	fmadd.d	ft6,fs5,fs3,ft6
    8000408a:	633a7643          	fmadd.d	fa2,fs4,fs3,fa2
    8000408e:	2b2c72c3          	fmadd.d	ft5,fs8,fs2,ft5
    80004092:	232bf243          	fmadd.d	ft4,fs7,fs2,ft4
    80004096:	6b2b76c3          	fmadd.d	fa3,fs6,fs2,fa3
    8000409a:	732af743          	fmadd.d	fa4,fs5,fs2,fa4
    8000409e:	7b2a77c3          	fmadd.d	fa5,fs4,fs2,fa5
    800040a2:	fb84ffc3          	fmadd.d	ft11,fs1,fs8,ft11
    800040a6:	f374ff43          	fmadd.d	ft10,fs1,fs7,ft10
    800040aa:	eb64fec3          	fmadd.d	ft9,fs1,fs6,ft9
    800040ae:	e354fe43          	fmadd.d	ft8,fs1,fs5,ft8
    800040b2:	5b44f5c3          	fmadd.d	fa1,fs1,fs4,fa1
    800040b6:	1a8c71c3          	fmadd.d	ft3,fs8,fs0,ft3
    800040ba:	128bf143          	fmadd.d	ft2,fs7,fs0,ft2
    800040be:	0a8b70c3          	fmadd.d	ft1,fs6,fs0,ft1
    800040c2:	028af043          	fmadd.d	ft0,fs5,fs0,ft0
    800040c6:	528a7543          	fmadd.d	fa0,fs4,fs0,fa0
    800040ca:	97ee                	add	a5,a5,s11
    800040cc:	0621                	addi	a2,a2,8
    800040ce:	f93761e3          	bltu	a4,s3,80004050 <mm_cb+0x1f0a>
    800040d2:	01fe3027          	fsd	ft11,0(t3)
    800040d6:	01ee3427          	fsd	ft10,8(t3)
    800040da:	01de3827          	fsd	ft9,16(t3)
    800040de:	01ce3c27          	fsd	ft8,24(t3)
    800040e2:	02be3027          	fsd	fa1,32(t3)
    800040e6:	0036b027          	fsd	ft3,0(a3)
    800040ea:	0026b427          	fsd	ft2,8(a3)
    800040ee:	0016b827          	fsd	ft1,16(a3)
    800040f2:	0006bc27          	fsd	ft0,24(a3)
    800040f6:	b288                	fsd	fa0,32(a3)
    800040f8:	01133027          	fsd	fa7,0(t1)
    800040fc:	01033427          	fsd	fa6,8(t1)
    80004100:	00733827          	fsd	ft7,16(t1)
    80004104:	00633c27          	fsd	ft6,24(t1)
    80004108:	02c33027          	fsd	fa2,32(t1)
    8000410c:	00583027          	fsd	ft5,0(a6)
    80004110:	00483427          	fsd	ft4,8(a6)
    80004114:	00d83827          	fsd	fa3,16(a6)
    80004118:	00e83c27          	fsd	fa4,24(a6)
    8000411c:	02f83027          	fsd	fa5,32(a6)
    80004120:	0f15                	addi	t5,t5,5
    80004122:	028e0e13          	addi	t3,t3,40
    80004126:	02868693          	addi	a3,a3,40
    8000412a:	02830313          	addi	t1,t1,40
    8000412e:	02880813          	addi	a6,a6,40
    80004132:	028e8e93          	addi	t4,t4,40
    80004136:	bd4f67e3          	bltu	t5,s4,80003d04 <mm_cb+0x1bbe>
    8000413a:	87aa                	mv	a5,a0
    8000413c:	6018                	ld	a4,0(s0)
    8000413e:	86e2                	mv	a3,s8
    80004140:	861e                	mv	a2,t2
    80004142:	e03a                	sd	a4,0(sp)
    80004144:	e8043703          	ld	a4,-384(s0)
    80004148:	ef043803          	ld	a6,-272(s0)
    8000414c:	eb843583          	ld	a1,-328(s0)
    80004150:	98ba                	add	a7,a7,a4
    80004152:	ee043703          	ld	a4,-288(s0)
    80004156:	f2f43023          	sd	a5,-224(s0)
    8000415a:	f2743423          	sd	t2,-216(s0)
    8000415e:	4511                	li	a0,4
    80004160:	ea1fd0ef          	jal	80002000 <mm_naive>
    80004164:	ec843783          	ld	a5,-312(s0)
    80004168:	e7843683          	ld	a3,-392(s0)
    8000416c:	f2843383          	ld	t2,-216(s0)
    80004170:	00478713          	addi	a4,a5,4
    80004174:	e7043783          	ld	a5,-400(s0)
    80004178:	ece43423          	sd	a4,-312(s0)
    8000417c:	9c3e                	add	s8,s8,a5
    8000417e:	94be                	add	s1,s1,a5
    80004180:	99be                	add	s3,s3,a5
    80004182:	ef843783          	ld	a5,-264(s0)
    80004186:	97b6                	add	a5,a5,a3
    80004188:	ed043683          	ld	a3,-304(s0)
    8000418c:	eef43c23          	sd	a5,-264(s0)
    80004190:	f2043783          	ld	a5,-224(s0)
    80004194:	b2d765e3          	bltu	a4,a3,80003cbe <mm_cb+0x1b78>
    80004198:	8be6                	mv	s7,s9
    8000419a:	df043e83          	ld	t4,-528(s0)
    8000419e:	df843c83          	ld	s9,-520(s0)
    800041a2:	861e                	mv	a2,t2
    800041a4:	601c                	ld	a5,0(s0)
    800041a6:	f3d43423          	sd	t4,-216(s0)
    800041aa:	0ce1                	addi	s9,s9,24
    800041ac:	e03e                	sd	a5,0(sp)
    800041ae:	f0043483          	ld	s1,-256(s0)
    800041b2:	ea043683          	ld	a3,-352(s0)
    800041b6:	ee043703          	ld	a4,-288(s0)
    800041ba:	e9843883          	ld	a7,-360(s0)
    800041be:	ef043803          	ld	a6,-272(s0)
    800041c2:	e3043583          	ld	a1,-464(s0)
    800041c6:	ea843503          	ld	a0,-344(s0)
    800041ca:	87a6                	mv	a5,s1
    800041cc:	96de                	add	a3,a3,s7
    800041ce:	e33fd0ef          	jal	80002000 <mm_naive>
    800041d2:	e5843703          	ld	a4,-424(s0)
    800041d6:	f2843e83          	ld	t4,-216(s0)
    800041da:	0c0b8b93          	addi	s7,s7,192
    800041de:	00e487b3          	add	a5,s1,a4
    800041e2:	f0f43023          	sd	a5,-256(s0)
    800041e6:	a7dcece3          	bltu	s9,t4,80003c5e <mm_cb+0x1b18>
    800041ea:	f0843783          	ld	a5,-248(s0)
    800041ee:	e2843483          	ld	s1,-472(s0)
    800041f2:	e0843683          	ld	a3,-504(s0)
    800041f6:	0c878793          	addi	a5,a5,200
    800041fa:	f0f43423          	sd	a5,-248(s0)
    800041fe:	f1043783          	ld	a5,-240(s0)
    80004202:	04e5                	addi	s1,s1,25
    80004204:	e2043c83          	ld	s9,-480(s0)
    80004208:	0c878793          	addi	a5,a5,200
    8000420c:	f0f43823          	sd	a5,-240(s0)
    80004210:	e1843b83          	ld	s7,-488(s0)
    80004214:	e1043a03          	ld	s4,-496(s0)
    80004218:	e0043c03          	ld	s8,-512(s0)
    8000421c:	ef043803          	ld	a6,-272(s0)
    80004220:	9ad4ece3          	bltu	s1,a3,80003bd8 <mm_cb+0x1a92>
    80004224:	e4043903          	ld	s2,-448(s0)
    80004228:	85b6                	mv	a1,a3
    8000422a:	979fe06f          	j	80002ba2 <mm_cb+0xa5c>
    8000422e:	ef843703          	ld	a4,-264(s0)
    80004232:	00371893          	slli	a7,a4,0x3
    80004236:	b719                	j	8000413c <mm_cb+0x1ff6>
    80004238:	000f0463          	beqz	t5,80004240 <mm_cb+0x20fa>
    8000423c:	938fe06f          	j	80002374 <mm_cb+0x22e>
    80004240:	000a1463          	bnez	s4,80004248 <mm_cb+0x2102>
    80004244:	989fe06f          	j	80002bcc <mm_cb+0xa86>
    80004248:	c199                	beqz	a1,8000424e <mm_cb+0x2108>
    8000424a:	931fe06f          	j	80002b7a <mm_cb+0xa34>
    8000424e:	97ffe06f          	j	80002bcc <mm_cb+0xa86>

0000000080004252 <mm>:
    80004252:	8332                	mv	t1,a2
    80004254:	7149                	addi	sp,sp,-368
    80004256:	03133e13          	sltiu	t3,t1,49
    8000425a:	0335b613          	sltiu	a2,a1,51
    8000425e:	01c67633          	and	a2,a2,t3
    80004262:	f686                	sd	ra,360(sp)
    80004264:	8e3e                	mv	t3,a5
    80004266:	77d6                	ld	a5,368(sp)
    80004268:	5e060463          	beqz	a2,80004850 <mm+0x5fe>
    8000426c:	03153613          	sltiu	a2,a0,49
    80004270:	5e060063          	beqz	a2,80004850 <mm+0x5fe>
    80004274:	eea6                	sd	s1,344(sp)
    80004276:	f43a                	sd	a4,40(sp)
    80004278:	84ba                	mv	s1,a4
    8000427a:	872a                	mv	a4,a0
    8000427c:	8642                	mv	a2,a6
    8000427e:	ffc77813          	andi	a6,a4,-4
    80004282:	f2a2                	sd	s0,352(sp)
    80004284:	fcc6                	sd	a7,120(sp)
    80004286:	f8f2                	sd	t3,112(sp)
    80004288:	f042                	sd	a6,32(sp)
    8000428a:	8446                	mv	s0,a7
    8000428c:	8f72                	mv	t5,t3
    8000428e:	851a                	mv	a0,t1
    80004290:	58080963          	beqz	a6,80004822 <mm+0x5d0>
    80004294:	aaaab8b7          	lui	a7,0xaaaab
    80004298:	aab88893          	addi	a7,a7,-1365 # ffffffffaaaaaaab <__global_pointer$+0xffffffff2aaa4ecb>
    8000429c:	02089813          	slli	a6,a7,0x20
    800042a0:	9846                	add	a6,a6,a7
    800042a2:	03033833          	mulhu	a6,t1,a6
    800042a6:	ccccd337          	lui	t1,0xccccd
    800042aa:	ccd30313          	addi	t1,t1,-819 # ffffffffcccccccd <__global_pointer$+0xffffffff4ccc70ed>
    800042ae:	02031893          	slli	a7,t1,0x20
    800042b2:	989a                	add	a7,a7,t1
    800042b4:	eaca                	sd	s2,336(sp)
    800042b6:	00179313          	slli	t1,a5,0x1
    800042ba:	933e                	add	t1,t1,a5
    800042bc:	030e                	slli	t1,t1,0x3
    800042be:	9322                	add	t1,t1,s0
    800042c0:	0315b8b3          	mulhu	a7,a1,a7
    800042c4:	00285813          	srli	a6,a6,0x2
    800042c8:	00181913          	slli	s2,a6,0x1
    800042cc:	9942                	add	s2,s2,a6
    800042ce:	e51a                	sd	t1,136(sp)
    800042d0:	f65e                	sd	s7,296(sp)
    800042d2:	00479e13          	slli	t3,a5,0x4
    800042d6:	f262                	sd	s8,288(sp)
    800042d8:	fe56                	sd	s5,312(sp)
    800042da:	00161a93          	slli	s5,a2,0x1
    800042de:	03060833          	mul	a6,a2,a6
    800042e2:	0028d313          	srli	t1,a7,0x2
    800042e6:	ffc8f893          	andi	a7,a7,-4
    800042ea:	00688bb3          	add	s7,a7,t1
    800042ee:	003b9893          	slli	a7,s7,0x3
    800042f2:	011f0333          	add	t1,t5,a7
    800042f6:	98a2                	add	a7,a7,s0
    800042f8:	f0c6                	sd	a7,96(sp)
    800042fa:	417588b3          	sub	a7,a1,s7
    800042fe:	e8c6                	sd	a7,80(sp)
    80004300:	00379893          	slli	a7,a5,0x3
    80004304:	98a2                	add	a7,a7,s0
    80004306:	00181c13          	slli	s8,a6,0x1
    8000430a:	9472                	add	s0,s0,t3
    8000430c:	9c42                	add	s8,s8,a6
    8000430e:	e922                	sd	s0,144(sp)
    80004310:	00279813          	slli	a6,a5,0x2
    80004314:	00349413          	slli	s0,s1,0x3
    80004318:	e6ce                	sd	s3,328(sp)
    8000431a:	e2d2                	sd	s4,320(sp)
    8000431c:	fa5a                	sd	s6,304(sp)
    8000431e:	ee66                	sd	s9,280(sp)
    80004320:	ea6a                	sd	s10,272(sp)
    80004322:	e66e                	sd	s11,264(sp)
    80004324:	e122                	sd	s0,128(sp)
    80004326:	bda2                	fsd	fs0,248(sp)
    80004328:	b9a6                	fsd	fs1,240(sp)
    8000432a:	b5ca                	fsd	fs2,232(sp)
    8000432c:	b1ce                	fsd	fs3,224(sp)
    8000432e:	add2                	fsd	fs4,216(sp)
    80004330:	a9d6                	fsd	fs5,208(sp)
    80004332:	a5da                	fsd	fs6,200(sp)
    80004334:	a1de                	fsd	fs7,192(sp)
    80004336:	bd62                	fsd	fs8,184(sp)
    80004338:	b966                	fsd	fs9,176(sp)
    8000433a:	9ab2                	add	s5,s5,a2
    8000433c:	0912                	slli	s2,s2,0x4
    8000433e:	00351993          	slli	s3,a0,0x3
    80004342:	ec9a                	sd	t1,88(sp)
    80004344:	ed46                	sd	a7,152(sp)
    80004346:	f4c2                	sd	a6,104(sp)
    80004348:	f83e                	sd	a5,48(sp)
    8000434a:	fc2e                	sd	a1,56(sp)
    8000434c:	e0aa                	sd	a0,64(sp)
    8000434e:	f13a                	sd	a4,160(sp)
    80004350:	00549c93          	slli	s9,s1,0x5
    80004354:	f536                	sd	a3,168(sp)
    80004356:	9936                	add	s2,s2,a3
    80004358:	0a92                	slli	s5,s5,0x4
    8000435a:	99b6                	add	s3,s3,a3
    8000435c:	0c12                	slli	s8,s8,0x4
    8000435e:	0492                	slli	s1,s1,0x4
    80004360:	00361a13          	slli	s4,a2,0x3
    80004364:	00461413          	slli	s0,a2,0x4
    80004368:	00561b13          	slli	s6,a2,0x5
    8000436c:	8d36                	mv	s10,a3
    8000436e:	4d81                	li	s11,0
    80004370:	4381                	li	t2,0
    80004372:	e4b2                	sd	a2,72(sp)
    80004374:	77e2                	ld	a5,56(sp)
    80004376:	4711                	li	a4,4
    80004378:	003d9893          	slli	a7,s11,0x3
    8000437c:	44f77163          	bgeu	a4,a5,800047be <mm+0x56c>
    80004380:	77e6                	ld	a5,120(sp)
    80004382:	7ec6                	ld	t4,112(sp)
    80004384:	4f01                	li	t5,0
    80004386:	01178e33          	add	t3,a5,a7
    8000438a:	67ea                	ld	a5,152(sp)
    8000438c:	011786b3          	add	a3,a5,a7
    80004390:	67ca                	ld	a5,144(sp)
    80004392:	01178333          	add	t1,a5,a7
    80004396:	67aa                	ld	a5,136(sp)
    80004398:	01178833          	add	a6,a5,a7
    8000439c:	678a                	ld	a5,128(sp)
    8000439e:	01a782b3          	add	t0,a5,s10
    800043a2:	01278fb3          	add	t6,a5,s2
    800043a6:	000e3f87          	fld	ft11,0(t3)
    800043aa:	008e3f07          	fld	ft10,8(t3)
    800043ae:	010e3e87          	fld	ft9,16(t3)
    800043b2:	018e3e07          	fld	ft8,24(t3)
    800043b6:	020e3587          	fld	fa1,32(t3)
    800043ba:	0006b187          	fld	ft3,0(a3)
    800043be:	0086b107          	fld	ft2,8(a3)
    800043c2:	0106b087          	fld	ft1,16(a3)
    800043c6:	0186b007          	fld	ft0,24(a3)
    800043ca:	3288                	fld	fa0,32(a3)
    800043cc:	00033887          	fld	fa7,0(t1)
    800043d0:	00833807          	fld	fa6,8(t1)
    800043d4:	01033387          	fld	ft7,16(t1)
    800043d8:	01833307          	fld	ft6,24(t1)
    800043dc:	02033607          	fld	fa2,32(t1)
    800043e0:	00083287          	fld	ft5,0(a6)
    800043e4:	00883207          	fld	ft4,8(a6)
    800043e8:	01083687          	fld	fa3,16(a6)
    800043ec:	01883707          	fld	fa4,24(a6)
    800043f0:	02083787          	fld	fa5,32(a6)
    800043f4:	2d2d7a63          	bgeu	s10,s2,800046c8 <mm+0x476>
    800043f8:	85f6                	mv	a1,t4
    800043fa:	01da07b3          	add	a5,s4,t4
    800043fe:	8616                	mv	a2,t0
    80004400:	876a                	mv	a4,s10
    80004402:	e85e                	sd	s7,16(sp)
    80004404:	ec52                	sd	s4,24(sp)
    80004406:	00970a33          	add	s4,a4,s1
    8000440a:	000a3407          	fld	fs0,0(s4)
    8000440e:	0005bb87          	fld	fs7,0(a1)
    80004412:	0085bb07          	fld	fs6,8(a1)
    80004416:	0105ba87          	fld	fs5,16(a1)
    8000441a:	0185ba07          	fld	fs4,24(a1)
    8000441e:	0205b987          	fld	fs3,32(a1)
    80004422:	00960533          	add	a0,a2,s1
    80004426:	2304                	fld	fs1,0(a4)
    80004428:	00053907          	fld	fs2,0(a0)
    8000442c:	6289f643          	fmadd.d	fa2,fs3,fs0,fa2
    80004430:	8a8bf8c3          	fmadd.d	fa7,fs7,fs0,fa7
    80004434:	828b7843          	fmadd.d	fa6,fs6,fs0,fa6
    80004438:	3a8af3c3          	fmadd.d	ft7,fs5,fs0,ft7
    8000443c:	328a7343          	fmadd.d	ft6,fs4,fs0,ft6
    80004440:	2200                	fld	fs0,0(a2)
    80004442:	7b29f7c3          	fmadd.d	fa5,fs3,fs2,fa5
    80004446:	5b34f5c3          	fmadd.d	fa1,fs1,fs3,fa1
    8000444a:	1a8bf1c3          	fmadd.d	ft3,fs7,fs0,ft3
    8000444e:	128b7143          	fmadd.d	ft2,fs6,fs0,ft2
    80004452:	0a8af0c3          	fmadd.d	ft1,fs5,fs0,ft1
    80004456:	028a7043          	fmadd.d	ft0,fs4,fs0,ft0
    8000445a:	2b2bf2c3          	fmadd.d	ft5,fs7,fs2,ft5
    8000445e:	fb74ffc3          	fmadd.d	ft11,fs1,fs7,ft11
    80004462:	232b7243          	fmadd.d	ft4,fs6,fs2,ft4
    80004466:	f364ff43          	fmadd.d	ft10,fs1,fs6,ft10
    8000446a:	6b2af6c3          	fmadd.d	fa3,fs5,fs2,fa3
    8000446e:	eb54fec3          	fmadd.d	ft9,fs1,fs5,ft9
    80004472:	732a7743          	fmadd.d	fa4,fs4,fs2,fa4
    80004476:	e344fe43          	fmadd.d	ft8,fs1,fs4,ft8
    8000447a:	5289f543          	fmadd.d	fa0,fs3,fs0,fa0
    8000447e:	00863b87          	fld	fs7,8(a2)
    80004482:	2700                	fld	fs0,8(a4)
    80004484:	0207bc07          	fld	fs8,32(a5)
    80004488:	008a3907          	fld	fs2,8(s4)
    8000448c:	0007bb07          	fld	fs6,0(a5)
    80004490:	2504                	fld	fs1,8(a0)
    80004492:	0087ba87          	fld	fs5,8(a5)
    80004496:	0107ba07          	fld	fs4,16(a5)
    8000449a:	0187b987          	fld	fs3,24(a5)
    8000449e:	537c7543          	fmadd.d	fa0,fs8,fs7,fa0
    800044a2:	8b2b78c3          	fmadd.d	fa7,fs6,fs2,fa7
    800044a6:	7299f743          	fmadd.d	fa4,fs3,fs1,fa4
    800044aa:	2a9b72c3          	fmadd.d	ft5,fs6,fs1,ft5
    800044ae:	fb647fc3          	fmadd.d	ft11,fs0,fs6,ft11
    800044b2:	832af843          	fmadd.d	fa6,fs5,fs2,fa6
    800044b6:	1b7b7b43          	fmadd.d	fs6,fs6,fs7,ft3
    800044ba:	229af243          	fmadd.d	ft4,fs5,fs1,ft4
    800044be:	f3547f43          	fmadd.d	ft10,fs0,fs5,ft10
    800044c2:	3b2a73c3          	fmadd.d	ft7,fs4,fs2,ft7
    800044c6:	137afac3          	fmadd.d	fs5,fs5,fs7,ft2
    800044ca:	6a9a76c3          	fmadd.d	fa3,fs4,fs1,fa3
    800044ce:	eb447ec3          	fmadd.d	ft9,fs0,fs4,ft9
    800044d2:	7a9c74c3          	fmadd.d	fs1,fs8,fs1,fa5
    800044d6:	0b7a7a43          	fmadd.d	fs4,fs4,fs7,ft1
    800044da:	3329f343          	fmadd.d	ft6,fs3,fs2,ft6
    800044de:	e3347e43          	fmadd.d	ft8,fs0,fs3,ft8
    800044e2:	632c7943          	fmadd.d	fs2,fs8,fs2,fa2
    800044e6:	5b847443          	fmadd.d	fs0,fs0,fs8,fa1
    800044ea:	0379f9c3          	fmadd.d	fs3,fs3,fs7,ft0
    800044ee:	00b40bb3          	add	s7,s0,a1
    800044f2:	010a3787          	fld	fa5,16(s4)
    800044f6:	01073007          	fld	ft0,16(a4)
    800044fa:	2a10                	fld	fa2,16(a2)
    800044fc:	000bbb87          	fld	fs7,0(s7)
    80004500:	008bb187          	fld	ft3,8(s7)
    80004504:	010bb107          	fld	ft2,16(s7)
    80004508:	018bb087          	fld	ft1,24(s7)
    8000450c:	020bbc07          	fld	fs8,32(s7)
    80004510:	290c                	fld	fa1,16(a0)
    80004512:	8afbf8c3          	fmadd.d	fa7,fs7,fa5,fa7
    80004516:	92fc7943          	fmadd.d	fs2,fs8,fa5,fs2
    8000451a:	2abbf2c3          	fmadd.d	ft5,fs7,fa1,ft5
    8000451e:	82f1f843          	fmadd.d	fa6,ft3,fa5,fa6
    80004522:	22b1f243          	fmadd.d	ft4,ft3,fa1,ft4
    80004526:	3af173c3          	fmadd.d	ft7,ft2,fa5,ft7
    8000452a:	6ab176c3          	fmadd.d	fa3,ft2,fa1,fa3
    8000452e:	32f0f343          	fmadd.d	ft6,ft1,fa5,ft6
    80004532:	fb707fc3          	fmadd.d	ft11,ft0,fs7,ft11
    80004536:	72b0f7c3          	fmadd.d	fa5,ft1,fa1,fa4
    8000453a:	b2cbfbc3          	fmadd.d	fs7,fs7,fa2,fs6
    8000453e:	4abc75c3          	fmadd.d	fa1,fs8,fa1,fs1
    80004542:	f2307f43          	fmadd.d	ft10,ft0,ft3,ft10
    80004546:	ea207ec3          	fmadd.d	ft9,ft0,ft2,ft9
    8000454a:	aac1f1c3          	fmadd.d	ft3,ft3,fa2,fs5
    8000454e:	a2c17143          	fmadd.d	ft2,ft2,fa2,fs4
    80004552:	e2107e43          	fmadd.d	ft8,ft0,ft1,ft8
    80004556:	9ac0f0c3          	fmadd.d	ft1,ft1,fa2,fs3
    8000455a:	43807043          	fmadd.d	ft0,ft0,fs8,fs0
    8000455e:	52cc7643          	fmadd.d	fa2,fs8,fa2,fa0
    80004562:	97a2                	add	a5,a5,s0
    80004564:	2f18                	fld	fa4,24(a4)
    80004566:	0007bb07          	fld	fs6,0(a5)
    8000456a:	0087ba87          	fld	fs5,8(a5)
    8000456e:	0107ba07          	fld	fs4,16(a5)
    80004572:	0187b987          	fld	fs3,24(a5)
    80004576:	0207bc07          	fld	fs8,32(a5)
    8000457a:	2d08                	fld	fa0,24(a0)
    8000457c:	2e00                	fld	fs0,24(a2)
    8000457e:	018a3487          	fld	fs1,24(s4)
    80004582:	03877043          	fmadd.d	ft0,fa4,fs8,ft0
    80004586:	5aac75c3          	fmadd.d	fa1,fs8,fa0,fa1
    8000458a:	fb677fc3          	fmadd.d	ft11,fa4,fs6,ft11
    8000458e:	f3577f43          	fmadd.d	ft10,fa4,fs5,ft10
    80004592:	eb477ec3          	fmadd.d	ft9,fa4,fs4,ft9
    80004596:	e3377e43          	fmadd.d	ft8,fa4,fs3,ft8
    8000459a:	8a9b78c3          	fmadd.d	fa7,fs6,fs1,fa7
    8000459e:	7aa9f743          	fmadd.d	fa4,fs3,fa0,fa5
    800045a2:	829af843          	fmadd.d	fa6,fs5,fs1,fa6
    800045a6:	3a9a73c3          	fmadd.d	ft7,fs4,fs1,ft7
    800045aa:	3299f343          	fmadd.d	ft6,fs3,fs1,ft6
    800045ae:	2aab72c3          	fmadd.d	ft5,fs6,fa0,ft5
    800045b2:	929c74c3          	fmadd.d	fs1,fs8,fs1,fs2
    800045b6:	22aaf243          	fmadd.d	ft4,fs5,fa0,ft4
    800045ba:	6aaa76c3          	fmadd.d	fa3,fs4,fa0,fa3
    800045be:	ba8b7b43          	fmadd.d	fs6,fs6,fs0,fs7
    800045c2:	128a7a43          	fmadd.d	fs4,fs4,fs0,ft2
    800045c6:	1a8afac3          	fmadd.d	fs5,fs5,fs0,ft3
    800045ca:	0a89f9c3          	fmadd.d	fs3,fs3,fs0,ft1
    800045ce:	628c7443          	fmadd.d	fs0,fs8,fs0,fa2
    800045d2:	00bb0bb3          	add	s7,s6,a1
    800045d6:	02073087          	fld	ft1,32(a4)
    800045da:	321c                	fld	fa5,32(a2)
    800045dc:	020a3607          	fld	fa2,32(s4)
    800045e0:	008bbb87          	fld	fs7,8(s7)
    800045e4:	018bb187          	fld	ft3,24(s7)
    800045e8:	020bb107          	fld	ft2,32(s7)
    800045ec:	3108                	fld	fa0,32(a0)
    800045ee:	000bbc07          	fld	fs8,0(s7)
    800045f2:	010bb907          	fld	fs2,16(s7)
    800045f6:	0220fcc3          	fmadd.d	fs9,ft1,ft2,ft0
    800045fa:	82cbf843          	fmadd.d	fa6,fs7,fa2,fa6
    800045fe:	3ac973c3          	fmadd.d	ft7,fs2,fa2,ft7
    80004602:	32c1f343          	fmadd.d	ft6,ft3,fa2,ft6
    80004606:	22abf243          	fmadd.d	ft4,fs7,fa0,ft4
    8000460a:	6aa976c3          	fmadd.d	fa3,fs2,fa0,fa3
    8000460e:	72a1f743          	fmadd.d	fa4,ft3,fa0,fa4
    80004612:	f370ff43          	fmadd.d	ft10,ft1,fs7,ft10
    80004616:	eb20fec3          	fmadd.d	ft9,ft1,fs2,ft9
    8000461a:	e230fe43          	fmadd.d	ft8,ft1,ft3,ft8
    8000461e:	aafbfac3          	fmadd.d	fs5,fs7,fa5,fs5
    80004622:	a2f97943          	fmadd.d	fs2,fs2,fa5,fs4
    80004626:	42f17bc3          	fmadd.d	fs7,ft2,fa5,fs0
    8000462a:	9af1f9c3          	fmadd.d	fs3,ft3,fa5,fs3
    8000462e:	8acc78c3          	fmadd.d	fa7,fs8,fa2,fa7
    80004632:	2aac72c3          	fmadd.d	ft5,fs8,fa0,ft5
    80004636:	4ac17643          	fmadd.d	fa2,ft2,fa2,fs1
    8000463a:	5aa17543          	fmadd.d	fa0,ft2,fa0,fa1
    8000463e:	fb80ffc3          	fmadd.d	ft11,ft1,fs8,ft11
    80004642:	b2fc7b43          	fmadd.d	fs6,fs8,fa5,fs6
    80004646:	97a2                	add	a5,a5,s0
    80004648:	370c                	fld	fa1,40(a4)
    8000464a:	3600                	fld	fs0,40(a2)
    8000464c:	0007b187          	fld	ft3,0(a5)
    80004650:	028a3a07          	fld	fs4,40(s4)
    80004654:	0087b107          	fld	ft2,8(a5)
    80004658:	0107b087          	fld	ft1,16(a5)
    8000465c:	0187b007          	fld	ft0,24(a5)
    80004660:	3384                	fld	fs1,32(a5)
    80004662:	351c                	fld	fa5,40(a0)
    80004664:	03070713          	addi	a4,a4,48
    80004668:	fa35ffc3          	fmadd.d	ft11,fa1,ft3,ft11
    8000466c:	2af1f2c3          	fmadd.d	ft5,ft3,fa5,ft5
    80004670:	22f17243          	fmadd.d	ft4,ft2,fa5,ft4
    80004674:	6af0f6c3          	fmadd.d	fa3,ft1,fa5,fa3
    80004678:	72f07743          	fmadd.d	fa4,ft0,fa5,fa4
    8000467c:	f225ff43          	fmadd.d	ft10,fa1,ft2,ft10
    80004680:	ea15fec3          	fmadd.d	ft9,fa1,ft1,ft9
    80004684:	e205fe43          	fmadd.d	ft8,fa1,ft0,ft8
    80004688:	8b41f8c3          	fmadd.d	fa7,ft3,fs4,fa7
    8000468c:	83417843          	fmadd.d	fa6,ft2,fs4,fa6
    80004690:	3b40f3c3          	fmadd.d	ft7,ft1,fs4,ft7
    80004694:	33407343          	fmadd.d	ft6,ft0,fs4,ft6
    80004698:	52f4f7c3          	fmadd.d	fa5,fs1,fa5,fa0
    8000469c:	6344f643          	fmadd.d	fa2,fs1,fs4,fa2
    800046a0:	ca95f5c3          	fmadd.d	fa1,fa1,fs1,fs9
    800046a4:	b281f1c3          	fmadd.d	ft3,ft3,fs0,fs6
    800046a8:	aa817143          	fmadd.d	ft2,ft2,fs0,fs5
    800046ac:	9280f0c3          	fmadd.d	ft1,ft1,fs0,fs2
    800046b0:	9a807043          	fmadd.d	ft0,ft0,fs0,fs3
    800046b4:	ba84f543          	fmadd.d	fa0,fs1,fs0,fs7
    800046b8:	95d6                	add	a1,a1,s5
    800046ba:	97a2                	add	a5,a5,s0
    800046bc:	03060613          	addi	a2,a2,48
    800046c0:	d52763e3          	bltu	a4,s2,80004406 <mm+0x1b4>
    800046c4:	6bc2                	ld	s7,16(sp)
    800046c6:	6a62                	ld	s4,24(sp)
    800046c8:	09397763          	bgeu	s2,s3,80004756 <mm+0x504>
    800046cc:	01dc07b3          	add	a5,s8,t4
    800046d0:	867e                	mv	a2,t6
    800046d2:	874a                	mv	a4,s2
    800046d4:	009705b3          	add	a1,a4,s1
    800046d8:	0005b987          	fld	fs3,0(a1)
    800046dc:	009605b3          	add	a1,a2,s1
    800046e0:	2304                	fld	fs1,0(a4)
    800046e2:	2200                	fld	fs0,0(a2)
    800046e4:	0007bc07          	fld	fs8,0(a5)
    800046e8:	0087bb87          	fld	fs7,8(a5)
    800046ec:	0107bb07          	fld	fs6,16(a5)
    800046f0:	0187ba87          	fld	fs5,24(a5)
    800046f4:	0207ba07          	fld	fs4,32(a5)
    800046f8:	0005b907          	fld	fs2,0(a1)
    800046fc:	0721                	addi	a4,a4,8
    800046fe:	8b3c78c3          	fmadd.d	fa7,fs8,fs3,fa7
    80004702:	833bf843          	fmadd.d	fa6,fs7,fs3,fa6
    80004706:	3b3b73c3          	fmadd.d	ft7,fs6,fs3,ft7
    8000470a:	333af343          	fmadd.d	ft6,fs5,fs3,ft6
    8000470e:	633a7643          	fmadd.d	fa2,fs4,fs3,fa2
    80004712:	2b2c72c3          	fmadd.d	ft5,fs8,fs2,ft5
    80004716:	232bf243          	fmadd.d	ft4,fs7,fs2,ft4
    8000471a:	6b2b76c3          	fmadd.d	fa3,fs6,fs2,fa3
    8000471e:	732af743          	fmadd.d	fa4,fs5,fs2,fa4
    80004722:	7b2a77c3          	fmadd.d	fa5,fs4,fs2,fa5
    80004726:	fb84ffc3          	fmadd.d	ft11,fs1,fs8,ft11
    8000472a:	f374ff43          	fmadd.d	ft10,fs1,fs7,ft10
    8000472e:	eb64fec3          	fmadd.d	ft9,fs1,fs6,ft9
    80004732:	e354fe43          	fmadd.d	ft8,fs1,fs5,ft8
    80004736:	5b44f5c3          	fmadd.d	fa1,fs1,fs4,fa1
    8000473a:	1a8c71c3          	fmadd.d	ft3,fs8,fs0,ft3
    8000473e:	128bf143          	fmadd.d	ft2,fs7,fs0,ft2
    80004742:	0a8b70c3          	fmadd.d	ft1,fs6,fs0,ft1
    80004746:	028af043          	fmadd.d	ft0,fs5,fs0,ft0
    8000474a:	528a7543          	fmadd.d	fa0,fs4,fs0,fa0
    8000474e:	97d2                	add	a5,a5,s4
    80004750:	0621                	addi	a2,a2,8
    80004752:	f93761e3          	bltu	a4,s3,800046d4 <mm+0x482>
    80004756:	01fe3027          	fsd	ft11,0(t3)
    8000475a:	01ee3427          	fsd	ft10,8(t3)
    8000475e:	01de3827          	fsd	ft9,16(t3)
    80004762:	01ce3c27          	fsd	ft8,24(t3)
    80004766:	02be3027          	fsd	fa1,32(t3)
    8000476a:	0036b027          	fsd	ft3,0(a3)
    8000476e:	0026b427          	fsd	ft2,8(a3)
    80004772:	0016b827          	fsd	ft1,16(a3)
    80004776:	0006bc27          	fsd	ft0,24(a3)
    8000477a:	b288                	fsd	fa0,32(a3)
    8000477c:	01133027          	fsd	fa7,0(t1)
    80004780:	01033427          	fsd	fa6,8(t1)
    80004784:	00733827          	fsd	ft7,16(t1)
    80004788:	00633c27          	fsd	ft6,24(t1)
    8000478c:	02c33027          	fsd	fa2,32(t1)
    80004790:	00583027          	fsd	ft5,0(a6)
    80004794:	00483427          	fsd	ft4,8(a6)
    80004798:	00d83827          	fsd	fa3,16(a6)
    8000479c:	00e83c27          	fsd	fa4,24(a6)
    800047a0:	02f83027          	fsd	fa5,32(a6)
    800047a4:	0f15                	addi	t5,t5,5
    800047a6:	028e0e13          	addi	t3,t3,40
    800047aa:	02868693          	addi	a3,a3,40
    800047ae:	02830313          	addi	t1,t1,40
    800047b2:	02880813          	addi	a6,a6,40
    800047b6:	028e8e93          	addi	t4,t4,40
    800047ba:	bf7f66e3          	bltu	t5,s7,800043a6 <mm+0x154>
    800047be:	77c2                	ld	a5,48(sp)
    800047c0:	6826                	ld	a6,72(sp)
    800047c2:	7722                	ld	a4,40(sp)
    800047c4:	e03e                	sd	a5,0(sp)
    800047c6:	7786                	ld	a5,96(sp)
    800047c8:	6606                	ld	a2,64(sp)
    800047ca:	65c6                	ld	a1,80(sp)
    800047cc:	98be                	add	a7,a7,a5
    800047ce:	67e6                	ld	a5,88(sp)
    800047d0:	86ea                	mv	a3,s10
    800047d2:	4511                	li	a0,4
    800047d4:	e81e                	sd	t2,16(sp)
    800047d6:	82bfd0ef          	jal	80002000 <mm_naive>
    800047da:	77a6                	ld	a5,104(sp)
    800047dc:	63c2                	ld	t2,16(sp)
    800047de:	9d66                	add	s10,s10,s9
    800047e0:	9dbe                	add	s11,s11,a5
    800047e2:	7782                	ld	a5,32(sp)
    800047e4:	0391                	addi	t2,t2,4
    800047e6:	99e6                	add	s3,s3,s9
    800047e8:	9966                	add	s2,s2,s9
    800047ea:	b8f3e5e3          	bltu	t2,a5,80004374 <mm+0x122>
    800047ee:	77c2                	ld	a5,48(sp)
    800047f0:	75e2                	ld	a1,56(sp)
    800047f2:	6506                	ld	a0,64(sp)
    800047f4:	770a                	ld	a4,160(sp)
    800047f6:	76aa                	ld	a3,168(sp)
    800047f8:	6626                	ld	a2,72(sp)
    800047fa:	6956                	ld	s2,336(sp)
    800047fc:	69b6                	ld	s3,328(sp)
    800047fe:	6a16                	ld	s4,320(sp)
    80004800:	7af2                	ld	s5,312(sp)
    80004802:	7b52                	ld	s6,304(sp)
    80004804:	7bb2                	ld	s7,296(sp)
    80004806:	7c12                	ld	s8,288(sp)
    80004808:	6cf2                	ld	s9,280(sp)
    8000480a:	6d52                	ld	s10,272(sp)
    8000480c:	6db2                	ld	s11,264(sp)
    8000480e:	346e                	fld	fs0,248(sp)
    80004810:	34ce                	fld	fs1,240(sp)
    80004812:	392e                	fld	fs2,232(sp)
    80004814:	398e                	fld	fs3,224(sp)
    80004816:	2a6e                	fld	fs4,216(sp)
    80004818:	2ace                	fld	fs5,208(sp)
    8000481a:	2b2e                	fld	fs6,200(sp)
    8000481c:	2b8e                	fld	fs7,192(sp)
    8000481e:	3c6a                	fld	fs8,184(sp)
    80004820:	3cca                	fld	fs9,176(sp)
    80004822:	7402                	ld	s0,32(sp)
    80004824:	8832                	mv	a6,a2
    80004826:	862a                	mv	a2,a0
    80004828:	028788b3          	mul	a7,a5,s0
    8000482c:	40870533          	sub	a0,a4,s0
    80004830:	7722                	ld	a4,40(sp)
    80004832:	fabe                	sd	a5,368(sp)
    80004834:	64f6                	ld	s1,344(sp)
    80004836:	77c6                	ld	a5,112(sp)
    80004838:	70b6                	ld	ra,360(sp)
    8000483a:	02870333          	mul	t1,a4,s0
    8000483e:	7466                	ld	s0,120(sp)
    80004840:	088e                	slli	a7,a7,0x3
    80004842:	98a2                	add	a7,a7,s0
    80004844:	7416                	ld	s0,352(sp)
    80004846:	6175                	addi	sp,sp,368
    80004848:	030e                	slli	t1,t1,0x3
    8000484a:	969a                	add	a3,a3,t1
    8000484c:	fb4fd06f          	j	80002000 <mm_naive>
    80004850:	70b6                	ld	ra,360(sp)
    80004852:	fabe                	sd	a5,368(sp)
    80004854:	87f2                	mv	a5,t3
    80004856:	861a                	mv	a2,t1
    80004858:	6175                	addi	sp,sp,368
    8000485a:	8edfd06f          	j	80002146 <mm_cb>

000000008000485e <barrier>:
    8000485e:	0330000f          	fence	rw,rw
    80004862:	00022683          	lw	a3,0(tp) # 0 <threadsense.2>
    80004866:	a5818713          	addi	a4,gp,-1448 # 80005638 <count.1>
    8000486a:	4605                	li	a2,1
    8000486c:	0016b693          	seqz	a3,a3
    80004870:	00d22023          	sw	a3,0(tp) # 0 <threadsense.2>
    80004874:	06c726af          	amoadd.w.aqrl	a3,a2,(a4)
    80004878:	2681                	sext.w	a3,a3
    8000487a:	357d                	addiw	a0,a0,-1
    8000487c:	00022703          	lw	a4,0(tp) # 0 <threadsense.2>
    80004880:	00d50963          	beq	a0,a3,80004892 <barrier+0x34>
    80004884:	a541a783          	lw	a5,-1452(gp) # 80005634 <sense.0>
    80004888:	fee79ee3          	bne	a5,a4,80004884 <barrier+0x26>
    8000488c:	0330000f          	fence	rw,rw
    80004890:	8082                	ret
    80004892:	a401ac23          	sw	zero,-1448(gp) # 80005638 <count.1>
    80004896:	a4e1aa23          	sw	a4,-1452(gp) # 80005634 <sense.0>
    8000489a:	bfcd                	j	8000488c <barrier+0x2e>

000000008000489c <thread_entry>:
    8000489c:	7159                	addi	sp,sp,-112
    8000489e:	77fd                	lui	a5,0xfffff
    800048a0:	f0a2                	sd	s0,96(sp)
    800048a2:	eca6                	sd	s1,88(sp)
    800048a4:	e8ca                	sd	s2,80(sp)
    800048a6:	e4ce                	sd	s3,72(sp)
    800048a8:	e0d2                	sd	s4,64(sp)
    800048aa:	fc56                	sd	s5,56(sp)
    800048ac:	f85a                	sd	s6,48(sp)
    800048ae:	f45e                	sd	s7,40(sp)
    800048b0:	ec66                	sd	s9,24(sp)
    800048b2:	f486                	sd	ra,104(sp)
    800048b4:	f062                	sd	s8,32(sp)
    800048b6:	1880                	addi	s0,sp,112
    800048b8:	e0078293          	addi	t0,a5,-512 # ffffffffffffee00 <__global_pointer$+0xffffffff7fff9220>
    800048bc:	737d                	lui	t1,0xfffff
    800048be:	d4030393          	addi	t2,t1,-704 # ffffffffffffed40 <__global_pointer$+0xffffffff7fff9160>
    800048c2:	9116                	add	sp,sp,t0
    800048c4:	01010913          	addi	s2,sp,16
    800048c8:	6f05                	lui	t5,0x1
    800048ca:	911e                	add	sp,sp,t2
    800048cc:	8a2a                	mv	s4,a0
    800048ce:	37ab7537          	lui	a0,0x37ab7
    800048d2:	01010993          	addi	s3,sp,16
    800048d6:	2c0f0613          	addi	a2,t5,704 # 12c0 <buflen.1+0x1240>
    800048da:	911e                	add	sp,sp,t2
    800048dc:	4e05                	li	t3,1
    800048de:	8cae                	mv	s9,a1
    800048e0:	00251593          	slli	a1,a0,0x2
    800048e4:	0804                	addi	s1,sp,16
    800048e6:	0c090e93          	addi	t4,s2,192
    800048ea:	00c90b33          	add	s6,s2,a2
    800048ee:	eef58b93          	addi	s7,a1,-273
    800048f2:	03ee1a93          	slli	s5,t3,0x3e
    800048f6:	f40e8713          	addi	a4,t4,-192
    800048fa:	001bd693          	srli	a3,s7,0x1
    800048fe:	0176c833          	xor	a6,a3,s7
    80004902:	03e81893          	slli	a7,a6,0x3e
    80004906:	0158fbb3          	and	s7,a7,s5
    8000490a:	00dbec33          	or	s8,s7,a3
    8000490e:	001c5f93          	srli	t6,s8,0x1
    80004912:	018fc7b3          	xor	a5,t6,s8
    80004916:	03e79293          	slli	t0,a5,0x3e
    8000491a:	0152f333          	and	t1,t0,s5
    8000491e:	01f363b3          	or	t2,t1,t6
    80004922:	0013df13          	srli	t5,t2,0x1
    80004926:	007f4633          	xor	a2,t5,t2
    8000492a:	03e61e13          	slli	t3,a2,0x3e
    8000492e:	015e7533          	and	a0,t3,s5
    80004932:	01e56833          	or	a6,a0,t5
    80004936:	00185593          	srli	a1,a6,0x1
    8000493a:	0105c6b3          	xor	a3,a1,a6
    8000493e:	03e69893          	slli	a7,a3,0x3e
    80004942:	0158fbb3          	and	s7,a7,s5
    80004946:	00bbe2b3          	or	t0,s7,a1
    8000494a:	0012df93          	srli	t6,t0,0x1
    8000494e:	005fc7b3          	xor	a5,t6,t0
    80004952:	03e79313          	slli	t1,a5,0x3e
    80004956:	01537f33          	and	t5,t1,s5
    8000495a:	01ff6e33          	or	t3,t5,t6
    8000495e:	001e5513          	srli	a0,t3,0x1
    80004962:	01c54633          	xor	a2,a0,t3
    80004966:	03e61593          	slli	a1,a2,0x3e
    8000496a:	0155f6b3          	and	a3,a1,s5
    8000496e:	00a6e8b3          	or	a7,a3,a0
    80004972:	0018db93          	srli	s7,a7,0x1
    80004976:	011bcfb3          	xor	t6,s7,a7
    8000497a:	03ef9793          	slli	a5,t6,0x3e
    8000497e:	0157f333          	and	t1,a5,s5
    80004982:	01736f33          	or	t5,t1,s7
    80004986:	001f5513          	srli	a0,t5,0x1
    8000498a:	01e54633          	xor	a2,a0,t5
    8000498e:	03e61593          	slli	a1,a2,0x3e
    80004992:	0155f6b3          	and	a3,a1,s5
    80004996:	00a6ebb3          	or	s7,a3,a0
    8000499a:	d22bf0d3          	fcvt.d.l	ft1,s7
    8000499e:	d22f7053          	fcvt.d.l	ft0,t5
    800049a2:	d228f553          	fcvt.d.l	fa0,a7
    800049a6:	d22e75d3          	fcvt.d.l	fa1,t3
    800049aa:	d222f653          	fcvt.d.l	fa2,t0
    800049ae:	d22876d3          	fcvt.d.l	fa3,a6
    800049b2:	d223f753          	fcvt.d.l	fa4,t2
    800049b6:	d22c77d3          	fcvt.d.l	fa5,s8
    800049ba:	02173c27          	fsd	ft1,56(a4)
    800049be:	02073827          	fsd	ft0,48(a4)
    800049c2:	b708                	fsd	fa0,40(a4)
    800049c4:	b30c                	fsd	fa1,32(a4)
    800049c6:	af10                	fsd	fa2,24(a4)
    800049c8:	ab14                	fsd	fa3,16(a4)
    800049ca:	a718                	fsd	fa4,8(a4)
    800049cc:	a31c                	fsd	fa5,0(a4)
    800049ce:	04070713          	addi	a4,a4,64
    800049d2:	f3d714e3          	bne	a4,t4,800048fa <thread_entry+0x5e>
    800049d6:	0c070e93          	addi	t4,a4,192
    800049da:	f16e9ee3          	bne	t4,s6,800048f6 <thread_entry+0x5a>
    800049de:	6705                	lui	a4,0x1
    800049e0:	38870a93          	addi	s5,a4,904 # 1388 <buflen.1+0x1308>
    800049e4:	4b05                	li	s6,1
    800049e6:	01598f33          	add	t5,s3,s5
    800049ea:	03eb1313          	slli	t1,s6,0x3e
    800049ee:	0c898e93          	addi	t4,s3,200
    800049f2:	001bdc13          	srli	s8,s7,0x1
    800049f6:	017c43b3          	xor	t2,s8,s7
    800049fa:	03e39813          	slli	a6,t2,0x3e
    800049fe:	006872b3          	and	t0,a6,t1
    80004a02:	0182ebb3          	or	s7,t0,s8
    80004a06:	d22bf153          	fcvt.d.l	ft2,s7
    80004a0a:	f40e8593          	addi	a1,t4,-192
    80004a0e:	f22ebc27          	fsd	ft2,-200(t4)
    80004a12:	001bde13          	srli	t3,s7,0x1
    80004a16:	017e48b3          	xor	a7,t3,s7
    80004a1a:	03e89f93          	slli	t6,a7,0x3e
    80004a1e:	006ff7b3          	and	a5,t6,t1
    80004a22:	01c7eab3          	or	s5,a5,t3
    80004a26:	001ad613          	srli	a2,s5,0x1
    80004a2a:	01564533          	xor	a0,a2,s5
    80004a2e:	03e51693          	slli	a3,a0,0x3e
    80004a32:	0066f733          	and	a4,a3,t1
    80004a36:	00c76b33          	or	s6,a4,a2
    80004a3a:	001b5c13          	srli	s8,s6,0x1
    80004a3e:	016c43b3          	xor	t2,s8,s6
    80004a42:	03e39813          	slli	a6,t2,0x3e
    80004a46:	006872b3          	and	t0,a6,t1
    80004a4a:	0182ee33          	or	t3,t0,s8
    80004a4e:	001e5b93          	srli	s7,t3,0x1
    80004a52:	01cbc8b3          	xor	a7,s7,t3
    80004a56:	03e89f93          	slli	t6,a7,0x3e
    80004a5a:	006ff7b3          	and	a5,t6,t1
    80004a5e:	0177e533          	or	a0,a5,s7
    80004a62:	00155613          	srli	a2,a0,0x1
    80004a66:	00a646b3          	xor	a3,a2,a0
    80004a6a:	03e69713          	slli	a4,a3,0x3e
    80004a6e:	00677c33          	and	s8,a4,t1
    80004a72:	00cc63b3          	or	t2,s8,a2
    80004a76:	0013d813          	srli	a6,t2,0x1
    80004a7a:	007842b3          	xor	t0,a6,t2
    80004a7e:	03e29b93          	slli	s7,t0,0x3e
    80004a82:	006bf8b3          	and	a7,s7,t1
    80004a86:	0108e6b3          	or	a3,a7,a6
    80004a8a:	0016df93          	srli	t6,a3,0x1
    80004a8e:	00dfc7b3          	xor	a5,t6,a3
    80004a92:	03e79613          	slli	a2,a5,0x3e
    80004a96:	00667733          	and	a4,a2,t1
    80004a9a:	01f76c33          	or	s8,a4,t6
    80004a9e:	001c5813          	srli	a6,s8,0x1
    80004aa2:	018842b3          	xor	t0,a6,s8
    80004aa6:	03e29b93          	slli	s7,t0,0x3e
    80004aaa:	006bf8b3          	and	a7,s7,t1
    80004aae:	0108ebb3          	or	s7,a7,a6
    80004ab2:	d22bf1d3          	fcvt.d.l	ft3,s7
    80004ab6:	d22c7253          	fcvt.d.l	ft4,s8
    80004aba:	d226f2d3          	fcvt.d.l	ft5,a3
    80004abe:	d223f353          	fcvt.d.l	ft6,t2
    80004ac2:	d22573d3          	fcvt.d.l	ft7,a0
    80004ac6:	d22e7853          	fcvt.d.l	fa6,t3
    80004aca:	d22b78d3          	fcvt.d.l	fa7,s6
    80004ace:	d22afe53          	fcvt.d.l	ft8,s5
    80004ad2:	0235bc27          	fsd	ft3,56(a1)
    80004ad6:	0245b827          	fsd	ft4,48(a1)
    80004ada:	0255b427          	fsd	ft5,40(a1)
    80004ade:	0265b027          	fsd	ft6,32(a1)
    80004ae2:	0075bc27          	fsd	ft7,24(a1)
    80004ae6:	0105b827          	fsd	fa6,16(a1)
    80004aea:	0115b427          	fsd	fa7,8(a1)
    80004aee:	01c5b027          	fsd	ft8,0(a1)
    80004af2:	04058593          	addi	a1,a1,64
    80004af6:	f1d59ee3          	bne	a1,t4,80004a12 <thread_entry+0x176>
    80004afa:	0c858e93          	addi	t4,a1,200
    80004afe:	efee9ae3          	bne	t4,t5,800049f2 <thread_entry+0x156>
    80004b02:	6585                	lui	a1,0x1
    80004b04:	2c058613          	addi	a2,a1,704 # 12c0 <buflen.1+0x1240>
    80004b08:	8526                	mv	a0,s1
    80004b0a:	4581                	li	a1,0
    80004b0c:	712000ef          	jal	8000521e <memset>
    80004b10:	4aa1                	li	s5,8
    80004b12:	4c65                	li	s8,25
    80004b14:	b0202b73          	csrr	s6,minstret
    80004b18:	b0002bf3          	csrr	s7,mcycle
    80004b1c:	4761                	li	a4,24
    80004b1e:	4865                	li	a6,25
    80004b20:	e062                	sd	s8,0(sp)
    80004b22:	88a6                	mv	a7,s1
    80004b24:	87ce                	mv	a5,s3
    80004b26:	86ca                	mv	a3,s2
    80004b28:	85c2                	mv	a1,a6
    80004b2a:	863a                	mv	a2,a4
    80004b2c:	853a                	mv	a0,a4
    80004b2e:	f24ff0ef          	jal	80004252 <mm>
    80004b32:	b0202373          	csrr	t1,minstret
    80004b36:	b0002f73          	csrr	t5,mcycle
    80004b3a:	3afd                	addiw	s5,s5,-1
    80004b3c:	fc0a9ce3          	bnez	s5,80004b14 <thread_entry+0x278>
    80004b40:	41630c33          	sub	s8,t1,s6
    80004b44:	417f0b33          	sub	s6,t5,s7
    80004b48:	0ff0000f          	fence
    80004b4c:	48e1                	li	a7,24
    80004b4e:	87c6                	mv	a5,a7
    80004b50:	4695                	li	a3,5
    80004b52:	4865                	li	a6,25
    80004b54:	4719                	li	a4,6
    80004b56:	85d2                	mv	a1,s4
    80004b58:	4611                	li	a2,4
    80004b5a:	00001517          	auipc	a0,0x1
    80004b5e:	89650513          	addi	a0,a0,-1898 # 800053f0 <main+0x2a>
    80004b62:	59c000ef          	jal	800050fe <printf>
    80004b66:	000c061b          	sext.w	a2,s8
    80004b6a:	85d2                	mv	a1,s4
    80004b6c:	00001517          	auipc	a0,0x1
    80004b70:	8bc50513          	addi	a0,a0,-1860 # 80005428 <main+0x62>
    80004b74:	58a000ef          	jal	800050fe <printf>
    80004b78:	000b061b          	sext.w	a2,s6
    80004b7c:	85d2                	mv	a1,s4
    80004b7e:	00001517          	auipc	a0,0x1
    80004b82:	8c250513          	addi	a0,a0,-1854 # 80005440 <main+0x7a>
    80004b86:	578000ef          	jal	800050fe <printf>
    80004b8a:	6e1d                	lui	t3,0x7
    80004b8c:	080e0613          	addi	a2,t3,128 # 7080 <buflen.1+0x7000>
    80004b90:	85d2                	mv	a1,s4
    80004b92:	00001517          	auipc	a0,0x1
    80004b96:	8be50513          	addi	a0,a0,-1858 # 80005450 <main+0x8a>
    80004b9a:	564000ef          	jal	800050fe <printf>
    80004b9e:	01b77537          	lui	a0,0x1b77
    80004ba2:	40050393          	addi	t2,a0,1024 # 1b77400 <buflen.1+0x1b77380>
    80004ba6:	0363d633          	divu	a2,t2,s6
    80004baa:	85d2                	mv	a1,s4
    80004bac:	00001517          	auipc	a0,0x1
    80004bb0:	8b450513          	addi	a0,a0,-1868 # 80005460 <main+0x9a>
    80004bb4:	54a000ef          	jal	800050fe <printf>
    80004bb8:	00001797          	auipc	a5,0x1
    80004bbc:	8287bf87          	fld	ft11,-2008(a5) # 800053e0 <main+0x1a>
    80004bc0:	00001797          	auipc	a5,0x1
    80004bc4:	8287bf07          	fld	ft10,-2008(a5) # 800053e8 <main+0x22>
    80004bc8:	6685                	lui	a3,0x1
    80004bca:	7ffd                	lui	t6,0xfffff
    80004bcc:	2c068a93          	addi	s5,a3,704 # 12c0 <buflen.1+0x1240>
    80004bd0:	d40f8893          	addi	a7,t6,-704 # ffffffffffffed40 <__global_pointer$+0xffffffff7fff9160>
    80004bd4:	4601                	li	a2,0
    80004bd6:	4365                	li	t1,25
    80004bd8:	00161793          	slli	a5,a2,0x1
    80004bdc:	00c78733          	add	a4,a5,a2
    80004be0:	00671813          	slli	a6,a4,0x6
    80004be4:	010902b3          	add	t0,s2,a6
    80004be8:	01598eb3          	add	t4,s3,s5
    80004bec:	85a6                	mv	a1,s1
    80004bee:	4681                	li	a3,0
    80004bf0:	f2000ed3          	fmv.d.x	ft9,zero
    80004bf4:	011e8bb3          	add	s7,t4,a7
    80004bf8:	8f16                	mv	t5,t0
    80004bfa:	000f3087          	fld	ft1,0(t5)
    80004bfe:	000bb507          	fld	fa0,0(s7)
    80004c02:	008f3007          	fld	ft0,8(t5)
    80004c06:	0c8bb687          	fld	fa3,200(s7)
    80004c0a:	eaa0f743          	fmadd.d	fa4,ft1,fa0,ft9
    80004c0e:	010f3387          	fld	ft7,16(t5)
    80004c12:	190bb307          	fld	ft6,400(s7)
    80004c16:	018f3587          	fld	fa1,24(t5)
    80004c1a:	258bb287          	fld	ft5,600(s7)
    80004c1e:	020f3607          	fld	fa2,32(t5)
    80004c22:	320bb207          	fld	ft4,800(s7)
    80004c26:	72d07843          	fmadd.d	fa6,ft0,fa3,fa4
    80004c2a:	028f3887          	fld	fa7,40(t5)
    80004c2e:	3e8bb187          	fld	ft3,1000(s7)
    80004c32:	030f3e07          	fld	ft8,48(t5)
    80004c36:	4b0bb107          	fld	ft2,1200(s7)
    80004c3a:	038f3787          	fld	fa5,56(t5)
    80004c3e:	578bbe87          	fld	ft9,1400(s7)
    80004c42:	8263f0c3          	fmadd.d	ft1,ft7,ft6,fa6
    80004c46:	640b8b93          	addi	s7,s7,1600
    80004c4a:	040f0f13          	addi	t5,t5,64
    80004c4e:	0a55f543          	fmadd.d	fa0,fa1,ft5,ft1
    80004c52:	52467043          	fmadd.d	ft0,fa2,ft4,fa0
    80004c56:	0238f6c3          	fmadd.d	fa3,fa7,ft3,ft0
    80004c5a:	6a2e7743          	fmadd.d	fa4,ft8,ft2,fa3
    80004c5e:	73d7fec3          	fmadd.d	ft9,fa5,ft9,fa4
    80004c62:	f97e9ce3          	bne	t4,s7,80004bfa <thread_entry+0x35e>
    80004c66:	13fef3d3          	fmul.d	ft7,ft9,ft11
    80004c6a:	0005b307          	fld	ft6,0(a1)
    80004c6e:	13e3f5d3          	fmul.d	fa1,ft7,ft10
    80004c72:	0a7372d3          	fsub.d	ft5,ft6,ft7
    80004c76:	22b5a653          	fabs.d	fa2,fa1
    80004c7a:	2252a253          	fabs.d	ft4,ft5
    80004c7e:	a2c20c53          	fle.d	s8,ft4,fa2
    80004c82:	020c0363          	beqz	s8,80004ca8 <thread_entry+0x40c>
    80004c86:	0685                	addi	a3,a3,1
    80004c88:	05a1                	addi	a1,a1,8
    80004c8a:	0ea1                	addi	t4,t4,8
    80004c8c:	f66692e3          	bne	a3,t1,80004bf0 <thread_entry+0x354>
    80004c90:	0605                	addi	a2,a2,1
    80004c92:	4b61                	li	s6,24
    80004c94:	0c848493          	addi	s1,s1,200
    80004c98:	f56610e3          	bne	a2,s6,80004bd8 <thread_entry+0x33c>
    80004c9c:	8566                	mv	a0,s9
    80004c9e:	bc1ff0ef          	jal	8000485e <barrier>
    80004ca2:	4501                	li	a0,0
    80004ca4:	3ae000ef          	jal	80005052 <exit>
    80004ca8:	e20387d3          	fmv.x.d	a5,ft7
    80004cac:	e2030753          	fmv.x.d	a4,ft6
    80004cb0:	85d2                	mv	a1,s4
    80004cb2:	00000517          	auipc	a0,0x0
    80004cb6:	7c650513          	addi	a0,a0,1990 # 80005478 <main+0xb2>
    80004cba:	444000ef          	jal	800050fe <printf>
    80004cbe:	4505                	li	a0,1
    80004cc0:	392000ef          	jal	80005052 <exit>

0000000080004cc4 <vprintfmt>:
    80004cc4:	710d                	addi	sp,sp,-352
    80004cc6:	eaa2                	sd	s0,336(sp)
    80004cc8:	e6a6                	sd	s1,328(sp)
    80004cca:	e2ca                	sd	s2,320(sp)
    80004ccc:	fa52                	sd	s4,304(sp)
    80004cce:	f656                	sd	s5,296(sp)
    80004cd0:	f25a                	sd	s6,288(sp)
    80004cd2:	ee5e                	sd	s7,280(sp)
    80004cd4:	ee86                	sd	ra,344(sp)
    80004cd6:	fe4e                	sd	s3,312(sp)
    80004cd8:	ea62                	sd	s8,272(sp)
    80004cda:	e666                	sd	s9,264(sp)
    80004cdc:	e26a                	sd	s10,256(sp)
    80004cde:	84aa                	mv	s1,a0
    80004ce0:	8432                	mv	s0,a2
    80004ce2:	8bb6                	mv	s7,a3
    80004ce4:	892e                	mv	s2,a1
    80004ce6:	02500a13          	li	s4,37
    80004cea:	05500b13          	li	s6,85
    80004cee:	8fc18a93          	addi	s5,gp,-1796 # 800054dc <main+0x116>
    80004cf2:	a029                	j	80004cfc <vprintfmt+0x38>
    80004cf4:	cd1d                	beqz	a0,80004d32 <vprintfmt+0x6e>
    80004cf6:	85ca                	mv	a1,s2
    80004cf8:	0405                	addi	s0,s0,1
    80004cfa:	9482                	jalr	s1
    80004cfc:	00044503          	lbu	a0,0(s0)
    80004d00:	ff451ae3          	bne	a0,s4,80004cf4 <vprintfmt+0x30>
    80004d04:	00144683          	lbu	a3,1(s0)
    80004d08:	00140c13          	addi	s8,s0,1
    80004d0c:	59fd                	li	s3,-1
    80004d0e:	8762                	mv	a4,s8
    80004d10:	8cce                	mv	s9,s3
    80004d12:	02000d13          	li	s10,32
    80004d16:	4601                	li	a2,0
    80004d18:	fdd6879b          	addiw	a5,a3,-35
    80004d1c:	0ff7f793          	zext.b	a5,a5
    80004d20:	00170413          	addi	s0,a4,1
    80004d24:	04fb6163          	bltu	s6,a5,80004d66 <vprintfmt+0xa2>
    80004d28:	078a                	slli	a5,a5,0x2
    80004d2a:	97d6                	add	a5,a5,s5
    80004d2c:	439c                	lw	a5,0(a5)
    80004d2e:	97d6                	add	a5,a5,s5
    80004d30:	8782                	jr	a5
    80004d32:	60f6                	ld	ra,344(sp)
    80004d34:	6456                	ld	s0,336(sp)
    80004d36:	64b6                	ld	s1,328(sp)
    80004d38:	6916                	ld	s2,320(sp)
    80004d3a:	79f2                	ld	s3,312(sp)
    80004d3c:	7a52                	ld	s4,304(sp)
    80004d3e:	7ab2                	ld	s5,296(sp)
    80004d40:	7b12                	ld	s6,288(sp)
    80004d42:	6bf2                	ld	s7,280(sp)
    80004d44:	6c52                	ld	s8,272(sp)
    80004d46:	6cb2                	ld	s9,264(sp)
    80004d48:	6d12                	ld	s10,256(sp)
    80004d4a:	6135                	addi	sp,sp,352
    80004d4c:	8082                	ret
    80004d4e:	8d36                	mv	s10,a3
    80004d50:	00174683          	lbu	a3,1(a4)
    80004d54:	8722                	mv	a4,s0
    80004d56:	00170413          	addi	s0,a4,1
    80004d5a:	fdd6879b          	addiw	a5,a3,-35
    80004d5e:	0ff7f793          	zext.b	a5,a5
    80004d62:	fcfb73e3          	bgeu	s6,a5,80004d28 <vprintfmt+0x64>
    80004d66:	85ca                	mv	a1,s2
    80004d68:	02500513          	li	a0,37
    80004d6c:	9482                	jalr	s1
    80004d6e:	8462                	mv	s0,s8
    80004d70:	b771                	j	80004cfc <vprintfmt+0x38>
    80004d72:	fd06899b          	addiw	s3,a3,-48
    80004d76:	00174683          	lbu	a3,1(a4)
    80004d7a:	4825                	li	a6,9
    80004d7c:	fd06879b          	addiw	a5,a3,-48
    80004d80:	1ef86a63          	bltu	a6,a5,80004f74 <vprintfmt+0x2b0>
    80004d84:	0006859b          	sext.w	a1,a3
    80004d88:	8722                	mv	a4,s0
    80004d8a:	0029979b          	slliw	a5,s3,0x2
    80004d8e:	00174683          	lbu	a3,1(a4)
    80004d92:	013787bb          	addw	a5,a5,s3
    80004d96:	0017979b          	slliw	a5,a5,0x1
    80004d9a:	9fad                	addw	a5,a5,a1
    80004d9c:	fd06851b          	addiw	a0,a3,-48
    80004da0:	0705                	addi	a4,a4,1
    80004da2:	fd07899b          	addiw	s3,a5,-48
    80004da6:	0006859b          	sext.w	a1,a3
    80004daa:	fea870e3          	bgeu	a6,a0,80004d8a <vprintfmt+0xc6>
    80004dae:	f60cd5e3          	bgez	s9,80004d18 <vprintfmt+0x54>
    80004db2:	8cce                	mv	s9,s3
    80004db4:	59fd                	li	s3,-1
    80004db6:	b78d                	j	80004d18 <vprintfmt+0x54>
    80004db8:	00174683          	lbu	a3,1(a4)
    80004dbc:	8722                	mv	a4,s0
    80004dbe:	bfa9                	j	80004d18 <vprintfmt+0x54>
    80004dc0:	85ca                	mv	a1,s2
    80004dc2:	02500513          	li	a0,37
    80004dc6:	9482                	jalr	s1
    80004dc8:	bf15                	j	80004cfc <vprintfmt+0x38>
    80004dca:	00174683          	lbu	a3,1(a4)
    80004dce:	000ba983          	lw	s3,0(s7)
    80004dd2:	8722                	mv	a4,s0
    80004dd4:	0ba1                	addi	s7,s7,8
    80004dd6:	bfe1                	j	80004dae <vprintfmt+0xea>
    80004dd8:	85ca                	mv	a1,s2
    80004dda:	03000513          	li	a0,48
    80004dde:	9482                	jalr	s1
    80004de0:	85ca                	mv	a1,s2
    80004de2:	07800513          	li	a0,120
    80004de6:	9482                	jalr	s1
    80004de8:	008b8793          	addi	a5,s7,8
    80004dec:	46c1                	li	a3,16
    80004dee:	000bb703          	ld	a4,0(s7)
    80004df2:	8bbe                	mv	s7,a5
    80004df4:	02d775b3          	remu	a1,a4,a3
    80004df8:	0050                	addi	a2,sp,4
    80004dfa:	4785                	li	a5,1
    80004dfc:	c02e                	sw	a1,0(sp)
    80004dfe:	10d76463          	bltu	a4,a3,80004f06 <vprintfmt+0x242>
    80004e02:	02d75733          	divu	a4,a4,a3
    80004e06:	8c3e                	mv	s8,a5
    80004e08:	0611                	addi	a2,a2,4
    80004e0a:	2785                	addiw	a5,a5,1
    80004e0c:	02d775b3          	remu	a1,a4,a3
    80004e10:	feb62e23          	sw	a1,-4(a2)
    80004e14:	fed777e3          	bgeu	a4,a3,80004e02 <vprintfmt+0x13e>
    80004e18:	0197dc63          	bge	a5,s9,80004e30 <vprintfmt+0x16c>
    80004e1c:	2d01                	sext.w	s10,s10
    80004e1e:	3cfd                	addiw	s9,s9,-1
    80004e20:	fff7899b          	addiw	s3,a5,-1
    80004e24:	85ca                	mv	a1,s2
    80004e26:	856a                	mv	a0,s10
    80004e28:	3cfd                	addiw	s9,s9,-1
    80004e2a:	9482                	jalr	s1
    80004e2c:	ff3c9ce3          	bne	s9,s3,80004e24 <vprintfmt+0x160>
    80004e30:	0c0a                	slli	s8,s8,0x2
    80004e32:	018109b3          	add	s3,sp,s8
    80004e36:	ffc10c93          	addi	s9,sp,-4
    80004e3a:	4c25                	li	s8,9
    80004e3c:	0009a783          	lw	a5,0(s3)
    80004e40:	03000513          	li	a0,48
    80004e44:	00fc7463          	bgeu	s8,a5,80004e4c <vprintfmt+0x188>
    80004e48:	05700513          	li	a0,87
    80004e4c:	9d3d                	addw	a0,a0,a5
    80004e4e:	85ca                	mv	a1,s2
    80004e50:	19f1                	addi	s3,s3,-4
    80004e52:	9482                	jalr	s1
    80004e54:	ff9994e3          	bne	s3,s9,80004e3c <vprintfmt+0x178>
    80004e58:	b555                	j	80004cfc <vprintfmt+0x38>
    80004e5a:	4785                	li	a5,1
    80004e5c:	008b8c13          	addi	s8,s7,8
    80004e60:	00c7c363          	blt	a5,a2,80004e66 <vprintfmt+0x1a2>
    80004e64:	c25d                	beqz	a2,80004f0a <vprintfmt+0x246>
    80004e66:	000bb983          	ld	s3,0(s7)
    80004e6a:	0a09c763          	bltz	s3,80004f18 <vprintfmt+0x254>
    80004e6e:	874e                	mv	a4,s3
    80004e70:	8be2                	mv	s7,s8
    80004e72:	46a9                	li	a3,10
    80004e74:	b741                	j	80004df4 <vprintfmt+0x130>
    80004e76:	00174683          	lbu	a3,1(a4)
    80004e7a:	2605                	addiw	a2,a2,1
    80004e7c:	8722                	mv	a4,s0
    80004e7e:	bd69                	j	80004d18 <vprintfmt+0x54>
    80004e80:	46c1                	li	a3,16
    80004e82:	4705                	li	a4,1
    80004e84:	008b8793          	addi	a5,s7,8
    80004e88:	f6c743e3          	blt	a4,a2,80004dee <vprintfmt+0x12a>
    80004e8c:	f22d                	bnez	a2,80004dee <vprintfmt+0x12a>
    80004e8e:	000be703          	lwu	a4,0(s7)
    80004e92:	8bbe                	mv	s7,a5
    80004e94:	b785                	j	80004df4 <vprintfmt+0x130>
    80004e96:	000bbc03          	ld	s8,0(s7)
    80004e9a:	2d01                	sext.w	s10,s10
    80004e9c:	fd3d0793          	addi	a5,s10,-45
    80004ea0:	00f037b3          	snez	a5,a5
    80004ea4:	01902733          	sgtz	a4,s9
    80004ea8:	8f7d                	and	a4,a4,a5
    80004eaa:	0ba1                	addi	s7,s7,8
    80004eac:	060c0f63          	beqz	s8,80004f2a <vprintfmt+0x266>
    80004eb0:	e741                	bnez	a4,80004f38 <vprintfmt+0x274>
    80004eb2:	000c4503          	lbu	a0,0(s8)
    80004eb6:	cd11                	beqz	a0,80004ed2 <vprintfmt+0x20e>
    80004eb8:	5d7d                	li	s10,-1
    80004eba:	0009c563          	bltz	s3,80004ec4 <vprintfmt+0x200>
    80004ebe:	39fd                	addiw	s3,s3,-1
    80004ec0:	01a98963          	beq	s3,s10,80004ed2 <vprintfmt+0x20e>
    80004ec4:	85ca                	mv	a1,s2
    80004ec6:	9482                	jalr	s1
    80004ec8:	001c4503          	lbu	a0,1(s8)
    80004ecc:	0c05                	addi	s8,s8,1
    80004ece:	3cfd                	addiw	s9,s9,-1
    80004ed0:	f56d                	bnez	a0,80004eba <vprintfmt+0x1f6>
    80004ed2:	e39055e3          	blez	s9,80004cfc <vprintfmt+0x38>
    80004ed6:	85ca                	mv	a1,s2
    80004ed8:	02000513          	li	a0,32
    80004edc:	3cfd                	addiw	s9,s9,-1
    80004ede:	9482                	jalr	s1
    80004ee0:	fe0c9be3          	bnez	s9,80004ed6 <vprintfmt+0x212>
    80004ee4:	bd21                	j	80004cfc <vprintfmt+0x38>
    80004ee6:	87e6                	mv	a5,s9
    80004ee8:	000cd363          	bgez	s9,80004eee <vprintfmt+0x22a>
    80004eec:	4781                	li	a5,0
    80004eee:	00174683          	lbu	a3,1(a4)
    80004ef2:	00078c9b          	sext.w	s9,a5
    80004ef6:	8722                	mv	a4,s0
    80004ef8:	b505                	j	80004d18 <vprintfmt+0x54>
    80004efa:	000ba503          	lw	a0,0(s7)
    80004efe:	85ca                	mv	a1,s2
    80004f00:	0ba1                	addi	s7,s7,8
    80004f02:	9482                	jalr	s1
    80004f04:	bbe5                	j	80004cfc <vprintfmt+0x38>
    80004f06:	4c01                	li	s8,0
    80004f08:	bf01                	j	80004e18 <vprintfmt+0x154>
    80004f0a:	000ba983          	lw	s3,0(s7)
    80004f0e:	bfb1                	j	80004e6a <vprintfmt+0x1a6>
    80004f10:	46a9                	li	a3,10
    80004f12:	bf85                	j	80004e82 <vprintfmt+0x1be>
    80004f14:	46a1                	li	a3,8
    80004f16:	b7b5                	j	80004e82 <vprintfmt+0x1be>
    80004f18:	85ca                	mv	a1,s2
    80004f1a:	02d00513          	li	a0,45
    80004f1e:	9482                	jalr	s1
    80004f20:	41300733          	neg	a4,s3
    80004f24:	8be2                	mv	s7,s8
    80004f26:	46a9                	li	a3,10
    80004f28:	b5f1                	j	80004df4 <vprintfmt+0x130>
    80004f2a:	00000c17          	auipc	s8,0x0
    80004f2e:	56ec0c13          	addi	s8,s8,1390 # 80005498 <main+0xd2>
    80004f32:	02800513          	li	a0,40
    80004f36:	d349                	beqz	a4,80004eb8 <vprintfmt+0x1f4>
    80004f38:	87e2                	mv	a5,s8
    80004f3a:	013c06b3          	add	a3,s8,s3
    80004f3e:	00099663          	bnez	s3,80004f4a <vprintfmt+0x286>
    80004f42:	a829                	j	80004f5c <vprintfmt+0x298>
    80004f44:	0785                	addi	a5,a5,1
    80004f46:	00d78563          	beq	a5,a3,80004f50 <vprintfmt+0x28c>
    80004f4a:	0007c703          	lbu	a4,0(a5)
    80004f4e:	fb7d                	bnez	a4,80004f44 <vprintfmt+0x280>
    80004f50:	418787b3          	sub	a5,a5,s8
    80004f54:	40fc8cbb          	subw	s9,s9,a5
    80004f58:	01905863          	blez	s9,80004f68 <vprintfmt+0x2a4>
    80004f5c:	85ca                	mv	a1,s2
    80004f5e:	856a                	mv	a0,s10
    80004f60:	3cfd                	addiw	s9,s9,-1
    80004f62:	9482                	jalr	s1
    80004f64:	fe0c9ce3          	bnez	s9,80004f5c <vprintfmt+0x298>
    80004f68:	000c4503          	lbu	a0,0(s8)
    80004f6c:	d80508e3          	beqz	a0,80004cfc <vprintfmt+0x38>
    80004f70:	5d7d                	li	s10,-1
    80004f72:	b7a1                	j	80004eba <vprintfmt+0x1f6>
    80004f74:	8722                	mv	a4,s0
    80004f76:	bd25                	j	80004dae <vprintfmt+0xea>

0000000080004f78 <sprintf_putch.0>:
    80004f78:	619c                	ld	a5,0(a1)
    80004f7a:	00a78023          	sb	a0,0(a5)
    80004f7e:	619c                	ld	a5,0(a1)
    80004f80:	0785                	addi	a5,a5,1
    80004f82:	e19c                	sd	a5,0(a1)
    80004f84:	8082                	ret

0000000080004f86 <putchar>:
    80004f86:	08022783          	lw	a5,128(tp) # 80 <buflen.1>
    80004f8a:	04020713          	addi	a4,tp,64 # 40 <buf.2>
    80004f8e:	7159                	addi	sp,sp,-112
    80004f90:	973e                	add	a4,a4,a5
    80004f92:	2785                	addiw	a5,a5,1
    80004f94:	00a70023          	sb	a0,0(a4)
    80004f98:	08f22023          	sw	a5,128(tp) # 80 <buflen.1>
    80004f9c:	03f10713          	addi	a4,sp,63
    80004fa0:	fc078593          	addi	a1,a5,-64
    80004fa4:	fc077713          	andi	a4,a4,-64
    80004fa8:	c591                	beqz	a1,80004fb4 <putchar+0x2e>
    80004faa:	1559                	addi	a0,a0,-10
    80004fac:	c501                	beqz	a0,80004fb4 <putchar+0x2e>
    80004fae:	4501                	li	a0,0
    80004fb0:	6165                	addi	sp,sp,112
    80004fb2:	8082                	ret
    80004fb4:	04000593          	li	a1,64
    80004fb8:	e30c                	sd	a1,0(a4)
    80004fba:	4585                	li	a1,1
    80004fbc:	e70c                	sd	a1,8(a4)
    80004fbe:	04020693          	addi	a3,tp,64 # 40 <buf.2>
    80004fc2:	eb14                	sd	a3,16(a4)
    80004fc4:	ef1c                	sd	a5,24(a4)
    80004fc6:	0330000f          	fence	rw,rw
    80004fca:	ffffc697          	auipc	a3,0xffffc
    80004fce:	07668693          	addi	a3,a3,118 # 80001040 <fromhost>
    80004fd2:	ffffc797          	auipc	a5,0xffffc
    80004fd6:	02e7b723          	sd	a4,46(a5) # 80001000 <tohost>
    80004fda:	629c                	ld	a5,0(a3)
    80004fdc:	dffd                	beqz	a5,80004fda <putchar+0x54>
    80004fde:	ffffc797          	auipc	a5,0xffffc
    80004fe2:	0607b123          	sd	zero,98(a5) # 80001040 <fromhost>
    80004fe6:	0330000f          	fence	rw,rw
    80004fea:	08022023          	sw	zero,128(tp) # 80 <buflen.1>
    80004fee:	631c                	ld	a5,0(a4)
    80004ff0:	4501                	li	a0,0
    80004ff2:	6165                	addi	sp,sp,112
    80004ff4:	8082                	ret

0000000080004ff6 <setStats>:
    80004ff6:	b0002773          	csrr	a4,mcycle
    80004ffa:	a6018793          	addi	a5,gp,-1440 # 80005640 <counters>
    80004ffe:	c511                	beqz	a0,8000500a <setStats+0x14>
    80005000:	e398                	sd	a4,0(a5)
    80005002:	b0202773          	csrr	a4,minstret
    80005006:	e798                	sd	a4,8(a5)
    80005008:	8082                	ret
    8000500a:	6394                	ld	a3,0(a5)
    8000500c:	00000617          	auipc	a2,0x0
    80005010:	49460613          	addi	a2,a2,1172 # 800054a0 <main+0xda>
    80005014:	eb90                	sd	a2,16(a5)
    80005016:	8f15                	sub	a4,a4,a3
    80005018:	e398                	sd	a4,0(a5)
    8000501a:	b0202773          	csrr	a4,minstret
    8000501e:	6794                	ld	a3,8(a5)
    80005020:	00000617          	auipc	a2,0x0
    80005024:	48860613          	addi	a2,a2,1160 # 800054a8 <main+0xe2>
    80005028:	ef90                	sd	a2,24(a5)
    8000502a:	8f15                	sub	a4,a4,a3
    8000502c:	e798                	sd	a4,8(a5)
    8000502e:	8082                	ret

0000000080005030 <tohost_exit>:
    80005030:	00151793          	slli	a5,a0,0x1
    80005034:	0017e793          	ori	a5,a5,1
    80005038:	ffffc717          	auipc	a4,0xffffc
    8000503c:	fcf73423          	sd	a5,-56(a4) # 80001000 <tohost>
    80005040:	a001                	j	80005040 <tohost_exit+0x10>

0000000080005042 <handle_trap>:
    80005042:	6785                	lui	a5,0x1
    80005044:	a7378793          	addi	a5,a5,-1421 # a73 <buflen.1+0x9f3>
    80005048:	ffffc717          	auipc	a4,0xffffc
    8000504c:	faf73c23          	sd	a5,-72(a4) # 80001000 <tohost>
    80005050:	a001                	j	80005050 <handle_trap+0xe>

0000000080005052 <exit>:
    80005052:	1141                	addi	sp,sp,-16
    80005054:	e406                	sd	ra,8(sp)
    80005056:	fdbff0ef          	jal	80005030 <tohost_exit>

000000008000505a <abort>:
    8000505a:	10d00793          	li	a5,269
    8000505e:	ffffc717          	auipc	a4,0xffffc
    80005062:	faf73123          	sd	a5,-94(a4) # 80001000 <tohost>
    80005066:	a001                	j	80005066 <abort+0xc>

0000000080005068 <printstr>:
    80005068:	00054783          	lbu	a5,0(a0)
    8000506c:	7159                	addi	sp,sp,-112
    8000506e:	03f10693          	addi	a3,sp,63
    80005072:	fc06f693          	andi	a3,a3,-64
    80005076:	c799                	beqz	a5,80005084 <printstr+0x1c>
    80005078:	87aa                	mv	a5,a0
    8000507a:	0017c703          	lbu	a4,1(a5)
    8000507e:	0785                	addi	a5,a5,1
    80005080:	ff6d                	bnez	a4,8000507a <printstr+0x12>
    80005082:	8f89                	sub	a5,a5,a0
    80005084:	04000713          	li	a4,64
    80005088:	e298                	sd	a4,0(a3)
    8000508a:	4705                	li	a4,1
    8000508c:	e698                	sd	a4,8(a3)
    8000508e:	ea88                	sd	a0,16(a3)
    80005090:	ee9c                	sd	a5,24(a3)
    80005092:	0330000f          	fence	rw,rw
    80005096:	ffffc717          	auipc	a4,0xffffc
    8000509a:	faa70713          	addi	a4,a4,-86 # 80001040 <fromhost>
    8000509e:	ffffc797          	auipc	a5,0xffffc
    800050a2:	f6d7b123          	sd	a3,-158(a5) # 80001000 <tohost>
    800050a6:	631c                	ld	a5,0(a4)
    800050a8:	dffd                	beqz	a5,800050a6 <printstr+0x3e>
    800050aa:	ffffc797          	auipc	a5,0xffffc
    800050ae:	f807bb23          	sd	zero,-106(a5) # 80001040 <fromhost>
    800050b2:	0330000f          	fence	rw,rw
    800050b6:	629c                	ld	a5,0(a3)
    800050b8:	6165                	addi	sp,sp,112
    800050ba:	8082                	ret
    800050bc:	e111                	bnez	a0,800050c0 <printstr+0x58>
    800050be:	8082                	ret
    800050c0:	a001                	j	800050c0 <printstr+0x58>

00000000800050c2 <printhex>:
    800050c2:	7179                	addi	sp,sp,-48
    800050c4:	86aa                	mv	a3,a0
    800050c6:	f406                	sd	ra,40(sp)
    800050c8:	0028                	addi	a0,sp,8
    800050ca:	01710713          	addi	a4,sp,23
    800050ce:	45a5                	li	a1,9
    800050d0:	a011                	j	800050d4 <printhex+0x12>
    800050d2:	177d                	addi	a4,a4,-1
    800050d4:	00f6f793          	andi	a5,a3,15
    800050d8:	03000613          	li	a2,48
    800050dc:	00f5f463          	bgeu	a1,a5,800050e4 <printhex+0x22>
    800050e0:	05700613          	li	a2,87
    800050e4:	9fb1                	addw	a5,a5,a2
    800050e6:	00f70023          	sb	a5,0(a4)
    800050ea:	8291                	srli	a3,a3,0x4
    800050ec:	fee513e3          	bne	a0,a4,800050d2 <printhex+0x10>
    800050f0:	00010c23          	sb	zero,24(sp)
    800050f4:	f75ff0ef          	jal	80005068 <printstr>
    800050f8:	70a2                	ld	ra,40(sp)
    800050fa:	6145                	addi	sp,sp,48
    800050fc:	8082                	ret

00000000800050fe <printf>:
    800050fe:	711d                	addi	sp,sp,-96
    80005100:	02810313          	addi	t1,sp,40
    80005104:	f42e                	sd	a1,40(sp)
    80005106:	f832                	sd	a2,48(sp)
    80005108:	fc36                	sd	a3,56(sp)
    8000510a:	862a                	mv	a2,a0
    8000510c:	869a                	mv	a3,t1
    8000510e:	00000517          	auipc	a0,0x0
    80005112:	e7850513          	addi	a0,a0,-392 # 80004f86 <putchar>
    80005116:	4581                	li	a1,0
    80005118:	ec06                	sd	ra,24(sp)
    8000511a:	e0ba                	sd	a4,64(sp)
    8000511c:	e4be                	sd	a5,72(sp)
    8000511e:	e8c2                	sd	a6,80(sp)
    80005120:	ecc6                	sd	a7,88(sp)
    80005122:	e41a                	sd	t1,8(sp)
    80005124:	ba1ff0ef          	jal	80004cc4 <vprintfmt>
    80005128:	60e2                	ld	ra,24(sp)
    8000512a:	4501                	li	a0,0
    8000512c:	6125                	addi	sp,sp,96
    8000512e:	8082                	ret

0000000080005130 <sprintf>:
    80005130:	711d                	addi	sp,sp,-96
    80005132:	03010313          	addi	t1,sp,48
    80005136:	f022                	sd	s0,32(sp)
    80005138:	e42a                	sd	a0,8(sp)
    8000513a:	f832                	sd	a2,48(sp)
    8000513c:	fc36                	sd	a3,56(sp)
    8000513e:	842a                	mv	s0,a0
    80005140:	862e                	mv	a2,a1
    80005142:	00000517          	auipc	a0,0x0
    80005146:	e3650513          	addi	a0,a0,-458 # 80004f78 <sprintf_putch.0>
    8000514a:	002c                	addi	a1,sp,8
    8000514c:	869a                	mv	a3,t1
    8000514e:	f406                	sd	ra,40(sp)
    80005150:	e4be                	sd	a5,72(sp)
    80005152:	e0ba                	sd	a4,64(sp)
    80005154:	e8c2                	sd	a6,80(sp)
    80005156:	ecc6                	sd	a7,88(sp)
    80005158:	ec1a                	sd	t1,24(sp)
    8000515a:	b6bff0ef          	jal	80004cc4 <vprintfmt>
    8000515e:	67a2                	ld	a5,8(sp)
    80005160:	00078023          	sb	zero,0(a5)
    80005164:	6522                	ld	a0,8(sp)
    80005166:	70a2                	ld	ra,40(sp)
    80005168:	9d01                	subw	a0,a0,s0
    8000516a:	7402                	ld	s0,32(sp)
    8000516c:	6125                	addi	sp,sp,96
    8000516e:	8082                	ret

0000000080005170 <memcpy>:
    80005170:	00c5e7b3          	or	a5,a1,a2
    80005174:	8fc9                	or	a5,a5,a0
    80005176:	8b9d                	andi	a5,a5,7
    80005178:	83ae                	mv	t2,a1
    8000517a:	00c506b3          	add	a3,a0,a2
    8000517e:	cf91                	beqz	a5,8000519a <memcpy+0x2a>
    80005180:	962e                	add	a2,a2,a1
    80005182:	87aa                	mv	a5,a0
    80005184:	08d57a63          	bgeu	a0,a3,80005218 <memcpy+0xa8>
    80005188:	0005c703          	lbu	a4,0(a1)
    8000518c:	0585                	addi	a1,a1,1
    8000518e:	0785                	addi	a5,a5,1
    80005190:	fee78fa3          	sb	a4,-1(a5)
    80005194:	fec59ae3          	bne	a1,a2,80005188 <memcpy+0x18>
    80005198:	8082                	ret
    8000519a:	04050713          	addi	a4,a0,64
    8000519e:	06d77e63          	bgeu	a4,a3,8000521a <memcpy+0xaa>
    800051a2:	87ba                	mv	a5,a4
    800051a4:	0005b283          	ld	t0,0(a1)
    800051a8:	0085bf83          	ld	t6,8(a1)
    800051ac:	0105bf03          	ld	t5,16(a1)
    800051b0:	0185be83          	ld	t4,24(a1)
    800051b4:	0205be03          	ld	t3,32(a1)
    800051b8:	0285b303          	ld	t1,40(a1)
    800051bc:	0305b883          	ld	a7,48(a1)
    800051c0:	0385b803          	ld	a6,56(a1)
    800051c4:	04078793          	addi	a5,a5,64
    800051c8:	f857b023          	sd	t0,-128(a5)
    800051cc:	f9f7b423          	sd	t6,-120(a5)
    800051d0:	f9e7b823          	sd	t5,-112(a5)
    800051d4:	f9d7bc23          	sd	t4,-104(a5)
    800051d8:	fbc7b023          	sd	t3,-96(a5)
    800051dc:	fa67b423          	sd	t1,-88(a5)
    800051e0:	fb17b823          	sd	a7,-80(a5)
    800051e4:	fb07bc23          	sd	a6,-72(a5)
    800051e8:	04058593          	addi	a1,a1,64
    800051ec:	fad7ece3          	bltu	a5,a3,800051a4 <memcpy+0x34>
    800051f0:	fbf60613          	addi	a2,a2,-65
    800051f4:	fc067613          	andi	a2,a2,-64
    800051f8:	04038393          	addi	t2,t2,64
    800051fc:	00c707b3          	add	a5,a4,a2
    80005200:	00c385b3          	add	a1,t2,a2
    80005204:	f8d7fae3          	bgeu	a5,a3,80005198 <memcpy+0x28>
    80005208:	6198                	ld	a4,0(a1)
    8000520a:	07a1                	addi	a5,a5,8
    8000520c:	05a1                	addi	a1,a1,8
    8000520e:	fee7bc23          	sd	a4,-8(a5)
    80005212:	fed7ebe3          	bltu	a5,a3,80005208 <memcpy+0x98>
    80005216:	8082                	ret
    80005218:	8082                	ret
    8000521a:	87aa                	mv	a5,a0
    8000521c:	b7e5                	j	80005204 <memcpy+0x94>

000000008000521e <memset>:
    8000521e:	00c567b3          	or	a5,a0,a2
    80005222:	8b9d                	andi	a5,a5,7
    80005224:	962a                	add	a2,a2,a0
    80005226:	cb91                	beqz	a5,8000523a <memset+0x1c>
    80005228:	87aa                	mv	a5,a0
    8000522a:	02c57c63          	bgeu	a0,a2,80005262 <memset+0x44>
    8000522e:	0785                	addi	a5,a5,1
    80005230:	feb78fa3          	sb	a1,-1(a5)
    80005234:	fef61de3          	bne	a2,a5,8000522e <memset+0x10>
    80005238:	8082                	ret
    8000523a:	fec57fe3          	bgeu	a0,a2,80005238 <memset+0x1a>
    8000523e:	010107b7          	lui	a5,0x1010
    80005242:	10178793          	addi	a5,a5,257 # 1010101 <buflen.1+0x1010081>
    80005246:	02079713          	slli	a4,a5,0x20
    8000524a:	973e                	add	a4,a4,a5
    8000524c:	0ff5f593          	zext.b	a1,a1
    80005250:	02e585b3          	mul	a1,a1,a4
    80005254:	87aa                	mv	a5,a0
    80005256:	07a1                	addi	a5,a5,8
    80005258:	feb7bc23          	sd	a1,-8(a5)
    8000525c:	fec7ede3          	bltu	a5,a2,80005256 <memset+0x38>
    80005260:	8082                	ret
    80005262:	8082                	ret

0000000080005264 <_init>:
    80005264:	7171                	addi	sp,sp,-176
    80005266:	a8018793          	addi	a5,gp,-1408 # 80005660 <_tdata_begin>
    8000526a:	f122                	sd	s0,160(sp)
    8000526c:	a8018413          	addi	s0,gp,-1408 # 80005660 <_tdata_begin>
    80005270:	ed26                	sd	s1,152(sp)
    80005272:	40f404b3          	sub	s1,s0,a5
    80005276:	8626                	mv	a2,s1
    80005278:	e54e                	sd	s3,136(sp)
    8000527a:	e152                	sd	s4,128(sp)
    8000527c:	89aa                	mv	s3,a0
    8000527e:	8a2e                	mv	s4,a1
    80005280:	8512                	mv	a0,tp
    80005282:	85be                	mv	a1,a5
    80005284:	f506                	sd	ra,168(sp)
    80005286:	e94a                	sd	s2,144(sp)
    80005288:	fcd6                	sd	s5,120(sp)
    8000528a:	8a92                	mv	s5,tp
    8000528c:	ee5ff0ef          	jal	80005170 <memcpy>
    80005290:	00000617          	auipc	a2,0x0
    80005294:	47460613          	addi	a2,a2,1140 # 80005704 <_tbss_end>
    80005298:	8e01                	sub	a2,a2,s0
    8000529a:	009a8533          	add	a0,s5,s1
    8000529e:	4581                	li	a1,0
    800052a0:	f7fff0ef          	jal	8000521e <memset>
    800052a4:	85d2                	mv	a1,s4
    800052a6:	854e                	mv	a0,s3
    800052a8:	df4ff0ef          	jal	8000489c <thread_entry>
    800052ac:	03f10913          	addi	s2,sp,63
    800052b0:	4581                	li	a1,0
    800052b2:	4501                	li	a0,0
    800052b4:	fc097913          	andi	s2,s2,-64
    800052b8:	10e000ef          	jal	800053c6 <main>
    800052bc:	a7018493          	addi	s1,gp,-1424 # 80005650 <counter_names>
    800052c0:	8aaa                	mv	s5,a0
    800052c2:	89ca                	mv	s3,s2
    800052c4:	8a26                	mv	s4,s1
    800052c6:	a6018413          	addi	s0,gp,-1440 # 80005640 <counters>
    800052ca:	6014                	ld	a3,0(s0)
    800052cc:	ee89                	bnez	a3,800052e6 <_init+0x82>
    800052ce:	0421                	addi	s0,s0,8
    800052d0:	04a1                	addi	s1,s1,8
    800052d2:	ff441ce3          	bne	s0,s4,800052ca <_init+0x66>
    800052d6:	01390563          	beq	s2,s3,800052e0 <_init+0x7c>
    800052da:	854a                	mv	a0,s2
    800052dc:	d8dff0ef          	jal	80005068 <printstr>
    800052e0:	8556                	mv	a0,s5
    800052e2:	d4fff0ef          	jal	80005030 <tohost_exit>
    800052e6:	6090                	ld	a2,0(s1)
    800052e8:	854e                	mv	a0,s3
    800052ea:	00000597          	auipc	a1,0x0
    800052ee:	1e658593          	addi	a1,a1,486 # 800054d0 <main+0x10a>
    800052f2:	e3fff0ef          	jal	80005130 <sprintf>
    800052f6:	99aa                	add	s3,s3,a0
    800052f8:	bfd9                	j	800052ce <_init+0x6a>

00000000800052fa <strlen>:
    800052fa:	00054783          	lbu	a5,0(a0)
    800052fe:	cb89                	beqz	a5,80005310 <strlen+0x16>
    80005300:	87aa                	mv	a5,a0
    80005302:	0017c703          	lbu	a4,1(a5)
    80005306:	0785                	addi	a5,a5,1
    80005308:	ff6d                	bnez	a4,80005302 <strlen+0x8>
    8000530a:	40a78533          	sub	a0,a5,a0
    8000530e:	8082                	ret
    80005310:	4501                	li	a0,0
    80005312:	8082                	ret

0000000080005314 <strnlen>:
    80005314:	00b506b3          	add	a3,a0,a1
    80005318:	87aa                	mv	a5,a0
    8000531a:	e589                	bnez	a1,80005324 <strnlen+0x10>
    8000531c:	a811                	j	80005330 <strnlen+0x1c>
    8000531e:	0785                	addi	a5,a5,1
    80005320:	00d78563          	beq	a5,a3,8000532a <strnlen+0x16>
    80005324:	0007c703          	lbu	a4,0(a5)
    80005328:	fb7d                	bnez	a4,8000531e <strnlen+0xa>
    8000532a:	40a78533          	sub	a0,a5,a0
    8000532e:	8082                	ret
    80005330:	4501                	li	a0,0
    80005332:	8082                	ret

0000000080005334 <strcmp>:
    80005334:	00054783          	lbu	a5,0(a0)
    80005338:	0505                	addi	a0,a0,1
    8000533a:	0585                	addi	a1,a1,1
    8000533c:	0007869b          	sext.w	a3,a5
    80005340:	fff5c703          	lbu	a4,-1(a1)
    80005344:	c399                	beqz	a5,8000534a <strcmp+0x16>
    80005346:	fee687e3          	beq	a3,a4,80005334 <strcmp>
    8000534a:	40e7853b          	subw	a0,a5,a4
    8000534e:	8082                	ret

0000000080005350 <strcpy>:
    80005350:	87aa                	mv	a5,a0
    80005352:	0005c703          	lbu	a4,0(a1)
    80005356:	0585                	addi	a1,a1,1
    80005358:	0785                	addi	a5,a5,1
    8000535a:	fee78fa3          	sb	a4,-1(a5)
    8000535e:	fb75                	bnez	a4,80005352 <strcpy+0x2>
    80005360:	8082                	ret

0000000080005362 <atol>:
    80005362:	00054703          	lbu	a4,0(a0)
    80005366:	02000693          	li	a3,32
    8000536a:	87aa                	mv	a5,a0
    8000536c:	00d71763          	bne	a4,a3,8000537a <atol+0x18>
    80005370:	0017c703          	lbu	a4,1(a5)
    80005374:	0785                	addi	a5,a5,1
    80005376:	fed70de3          	beq	a4,a3,80005370 <atol+0xe>
    8000537a:	fd57069b          	addiw	a3,a4,-43
    8000537e:	0fd6f693          	andi	a3,a3,253
    80005382:	ea95                	bnez	a3,800053b6 <atol+0x54>
    80005384:	0017c683          	lbu	a3,1(a5)
    80005388:	fd370713          	addi	a4,a4,-45
    8000538c:	00173613          	seqz	a2,a4
    80005390:	ca8d                	beqz	a3,800053c2 <atol+0x60>
    80005392:	0785                	addi	a5,a5,1
    80005394:	4501                	li	a0,0
    80005396:	0785                	addi	a5,a5,1
    80005398:	fd06859b          	addiw	a1,a3,-48
    8000539c:	00251713          	slli	a4,a0,0x2
    800053a0:	0007c683          	lbu	a3,0(a5)
    800053a4:	972a                	add	a4,a4,a0
    800053a6:	0706                	slli	a4,a4,0x1
    800053a8:	00e58533          	add	a0,a1,a4
    800053ac:	f6ed                	bnez	a3,80005396 <atol+0x34>
    800053ae:	c219                	beqz	a2,800053b4 <atol+0x52>
    800053b0:	40a00533          	neg	a0,a0
    800053b4:	8082                	ret
    800053b6:	0007c683          	lbu	a3,0(a5)
    800053ba:	4601                	li	a2,0
    800053bc:	fee1                	bnez	a3,80005394 <atol+0x32>
    800053be:	4501                	li	a0,0
    800053c0:	8082                	ret
    800053c2:	4501                	li	a0,0
    800053c4:	b7ed                	j	800053ae <atol+0x4c>

Disassembly of section .text.startup:

00000000800053c6 <main>:
    800053c6:	1141                	addi	sp,sp,-16
    800053c8:	00000517          	auipc	a0,0x0
    800053cc:	0f050513          	addi	a0,a0,240 # 800054b8 <main+0xf2>
    800053d0:	e406                	sd	ra,8(sp)
    800053d2:	c97ff0ef          	jal	80005068 <printstr>
    800053d6:	60a2                	ld	ra,8(sp)
    800053d8:	557d                	li	a0,-1
    800053da:	0141                	addi	sp,sp,16
    800053dc:	8082                	ret
